
Glove.elf:     file format elf32-littlearm

Sections:
Idx Name          Size      VMA       LMA       File off  Algn
  0 .isr_vector   00000130  08000000  08000000  00001000  2**0
                  CONTENTS, ALLOC, LOAD, READONLY, DATA
  1 .text         00003408  08000130  08000130  00001130  2**3
                  CONTENTS, ALLOC, LOAD, READONLY, CODE
  2 .rodata       0000008c  08003538  08003538  00004538  2**2
                  CONTENTS, ALLOC, LOAD, READONLY, DATA
  3 .ARM.extab    00000000  080035c4  080035c4  00005144  2**0
                  CONTENTS, READONLY
  4 .ARM          00000000  080035c4  080035c4  00005144  2**0
                  CONTENTS, READONLY
  5 .preinit_array 00000000  080035c4  080035c4  00005144  2**0
                  CONTENTS, ALLOC, LOAD, DATA
  6 .init_array   00000004  080035c4  080035c4  000045c4  2**2
                  CONTENTS, ALLOC, LOAD, READONLY, DATA
  7 .fini_array   00000004  080035c8  080035c8  000045c8  2**2
                  CONTENTS, ALLOC, LOAD, READONLY, DATA
  8 .data         00000144  20000000  080035cc  00005000  2**2
                  CONTENTS, ALLOC, LOAD, DATA
  9 .bss          00000530  20000144  08003710  00005144  2**2
                  ALLOC
 10 ._user_heap_stack 00000604  20000674  08003710  00005674  2**0
                  ALLOC
 11 .ARM.attributes 00000029  00000000  00000000  00005144  2**0
                  CONTENTS, READONLY
 12 .debug_info   0000542e  00000000  00000000  0000516d  2**0
                  CONTENTS, READONLY, DEBUGGING, OCTETS
 13 .debug_abbrev 00001937  00000000  00000000  0000a59b  2**0
                  CONTENTS, READONLY, DEBUGGING, OCTETS
 14 .debug_aranges 00000418  00000000  00000000  0000bed8  2**3
                  CONTENTS, READONLY, DEBUGGING, OCTETS
 15 .debug_rnglists 00000309  00000000  00000000  0000c2f0  2**0
                  CONTENTS, READONLY, DEBUGGING, OCTETS
 16 .debug_macro  00011ba7  00000000  00000000  0000c5f9  2**0
                  CONTENTS, READONLY, DEBUGGING, OCTETS
 17 .debug_line   00006b48  00000000  00000000  0001e1a0  2**0
                  CONTENTS, READONLY, DEBUGGING, OCTETS
 18 .debug_str    00058b8b  00000000  00000000  00024ce8  2**0
                  CONTENTS, READONLY, DEBUGGING, OCTETS
 19 .comment      00000043  00000000  00000000  0007d873  2**0
                  CONTENTS, READONLY
 20 .debug_frame  00001018  00000000  00000000  0007d8b8  2**2
                  CONTENTS, READONLY, DEBUGGING, OCTETS
 21 .debug_line_str 00000048  00000000  00000000  0007e8d0  2**0
                  CONTENTS, READONLY, DEBUGGING, OCTETS

Disassembly of section .text:

08000130 <__do_global_dtors_aux>:
 8000130:	b510      	push	{r4, lr}
 8000132:	4c05      	ldr	r4, [pc, #20]	@ (8000148 <__do_global_dtors_aux+0x18>)
 8000134:	7823      	ldrb	r3, [r4, #0]
 8000136:	b933      	cbnz	r3, 8000146 <__do_global_dtors_aux+0x16>
 8000138:	4b04      	ldr	r3, [pc, #16]	@ (800014c <__do_global_dtors_aux+0x1c>)
 800013a:	b113      	cbz	r3, 8000142 <__do_global_dtors_aux+0x12>
 800013c:	4804      	ldr	r0, [pc, #16]	@ (8000150 <__do_global_dtors_aux+0x20>)
 800013e:	f3af 8000 	nop.w
 8000142:	2301      	movs	r3, #1
 8000144:	7023      	strb	r3, [r4, #0]
 8000146:	bd10      	pop	{r4, pc}
 8000148:	20000144 	.word	0x20000144
 800014c:	00000000 	.word	0x00000000
 8000150:	08003520 	.word	0x08003520

08000154 <frame_dummy>:
 8000154:	b508      	push	{r3, lr}
 8000156:	4b03      	ldr	r3, [pc, #12]	@ (8000164 <frame_dummy+0x10>)
 8000158:	b11b      	cbz	r3, 8000162 <frame_dummy+0xe>
 800015a:	4903      	ldr	r1, [pc, #12]	@ (8000168 <frame_dummy+0x14>)
 800015c:	4803      	ldr	r0, [pc, #12]	@ (800016c <frame_dummy+0x18>)
 800015e:	f3af 8000 	nop.w
 8000162:	bd08      	pop	{r3, pc}
 8000164:	00000000 	.word	0x00000000
 8000168:	20000148 	.word	0x20000148
 800016c:	08003520 	.word	0x08003520

08000170 <__aeabi_dmul>:
 8000170:	b570      	push	{r4, r5, r6, lr}
 8000172:	f04f 0cff 	mov.w	ip, #255	@ 0xff
 8000176:	f44c 6ce0 	orr.w	ip, ip, #1792	@ 0x700
 800017a:	ea1c 5411 	ands.w	r4, ip, r1, lsr #20
 800017e:	bf1d      	ittte	ne
 8000180:	ea1c 5513 	andsne.w	r5, ip, r3, lsr #20
 8000184:	ea94 0f0c 	teqne	r4, ip
 8000188:	ea95 0f0c 	teqne	r5, ip
 800018c:	f000 f8de 	bleq	800034c <__aeabi_dmul+0x1dc>
 8000190:	442c      	add	r4, r5
 8000192:	ea81 0603 	eor.w	r6, r1, r3
 8000196:	ea21 514c 	bic.w	r1, r1, ip, lsl #21
 800019a:	ea23 534c 	bic.w	r3, r3, ip, lsl #21
 800019e:	ea50 3501 	orrs.w	r5, r0, r1, lsl #12
 80001a2:	bf18      	it	ne
 80001a4:	ea52 3503 	orrsne.w	r5, r2, r3, lsl #12
 80001a8:	f441 1180 	orr.w	r1, r1, #1048576	@ 0x100000
 80001ac:	f443 1380 	orr.w	r3, r3, #1048576	@ 0x100000
 80001b0:	d038      	beq.n	8000224 <__aeabi_dmul+0xb4>
 80001b2:	fba0 ce02 	umull	ip, lr, r0, r2
 80001b6:	f04f 0500 	mov.w	r5, #0
 80001ba:	fbe1 e502 	umlal	lr, r5, r1, r2
 80001be:	f006 4200 	and.w	r2, r6, #2147483648	@ 0x80000000
 80001c2:	fbe0 e503 	umlal	lr, r5, r0, r3
 80001c6:	f04f 0600 	mov.w	r6, #0
 80001ca:	fbe1 5603 	umlal	r5, r6, r1, r3
 80001ce:	f09c 0f00 	teq	ip, #0
 80001d2:	bf18      	it	ne
 80001d4:	f04e 0e01 	orrne.w	lr, lr, #1
 80001d8:	f1a4 04ff 	sub.w	r4, r4, #255	@ 0xff
 80001dc:	f5b6 7f00 	cmp.w	r6, #512	@ 0x200
 80001e0:	f564 7440 	sbc.w	r4, r4, #768	@ 0x300
 80001e4:	d204      	bcs.n	80001f0 <__aeabi_dmul+0x80>
 80001e6:	ea5f 0e4e 	movs.w	lr, lr, lsl #1
 80001ea:	416d      	adcs	r5, r5
 80001ec:	eb46 0606 	adc.w	r6, r6, r6
 80001f0:	ea42 21c6 	orr.w	r1, r2, r6, lsl #11
 80001f4:	ea41 5155 	orr.w	r1, r1, r5, lsr #21
 80001f8:	ea4f 20c5 	mov.w	r0, r5, lsl #11
 80001fc:	ea40 505e 	orr.w	r0, r0, lr, lsr #21
 8000200:	ea4f 2ece 	mov.w	lr, lr, lsl #11
 8000204:	f1b4 0cfd 	subs.w	ip, r4, #253	@ 0xfd
 8000208:	bf88      	it	hi
 800020a:	f5bc 6fe0 	cmphi.w	ip, #1792	@ 0x700
 800020e:	d81e      	bhi.n	800024e <__aeabi_dmul+0xde>
 8000210:	f1be 4f00 	cmp.w	lr, #2147483648	@ 0x80000000
 8000214:	bf08      	it	eq
 8000216:	ea5f 0e50 	movseq.w	lr, r0, lsr #1
 800021a:	f150 0000 	adcs.w	r0, r0, #0
 800021e:	eb41 5104 	adc.w	r1, r1, r4, lsl #20
 8000222:	bd70      	pop	{r4, r5, r6, pc}
 8000224:	f006 4600 	and.w	r6, r6, #2147483648	@ 0x80000000
 8000228:	ea46 0101 	orr.w	r1, r6, r1
 800022c:	ea40 0002 	orr.w	r0, r0, r2
 8000230:	ea81 0103 	eor.w	r1, r1, r3
 8000234:	ebb4 045c 	subs.w	r4, r4, ip, lsr #1
 8000238:	bfc2      	ittt	gt
 800023a:	ebd4 050c 	rsbsgt	r5, r4, ip
 800023e:	ea41 5104 	orrgt.w	r1, r1, r4, lsl #20
 8000242:	bd70      	popgt	{r4, r5, r6, pc}
 8000244:	f441 1180 	orr.w	r1, r1, #1048576	@ 0x100000
 8000248:	f04f 0e00 	mov.w	lr, #0
 800024c:	3c01      	subs	r4, #1
 800024e:	f300 80ab 	bgt.w	80003a8 <__aeabi_dmul+0x238>
 8000252:	f114 0f36 	cmn.w	r4, #54	@ 0x36
 8000256:	bfde      	ittt	le
 8000258:	2000      	movle	r0, #0
 800025a:	f001 4100 	andle.w	r1, r1, #2147483648	@ 0x80000000
 800025e:	bd70      	pople	{r4, r5, r6, pc}
 8000260:	f1c4 0400 	rsb	r4, r4, #0
 8000264:	3c20      	subs	r4, #32
 8000266:	da35      	bge.n	80002d4 <__aeabi_dmul+0x164>
 8000268:	340c      	adds	r4, #12
 800026a:	dc1b      	bgt.n	80002a4 <__aeabi_dmul+0x134>
 800026c:	f104 0414 	add.w	r4, r4, #20
 8000270:	f1c4 0520 	rsb	r5, r4, #32
 8000274:	fa00 f305 	lsl.w	r3, r0, r5
 8000278:	fa20 f004 	lsr.w	r0, r0, r4
 800027c:	fa01 f205 	lsl.w	r2, r1, r5
 8000280:	ea40 0002 	orr.w	r0, r0, r2
 8000284:	f001 4200 	and.w	r2, r1, #2147483648	@ 0x80000000
 8000288:	f021 4100 	bic.w	r1, r1, #2147483648	@ 0x80000000
 800028c:	eb10 70d3 	adds.w	r0, r0, r3, lsr #31
 8000290:	fa21 f604 	lsr.w	r6, r1, r4
 8000294:	eb42 0106 	adc.w	r1, r2, r6
 8000298:	ea5e 0e43 	orrs.w	lr, lr, r3, lsl #1
 800029c:	bf08      	it	eq
 800029e:	ea20 70d3 	biceq.w	r0, r0, r3, lsr #31
 80002a2:	bd70      	pop	{r4, r5, r6, pc}
 80002a4:	f1c4 040c 	rsb	r4, r4, #12
 80002a8:	f1c4 0520 	rsb	r5, r4, #32
 80002ac:	fa00 f304 	lsl.w	r3, r0, r4
 80002b0:	fa20 f005 	lsr.w	r0, r0, r5
 80002b4:	fa01 f204 	lsl.w	r2, r1, r4
 80002b8:	ea40 0002 	orr.w	r0, r0, r2
 80002bc:	f001 4100 	and.w	r1, r1, #2147483648	@ 0x80000000
 80002c0:	eb10 70d3 	adds.w	r0, r0, r3, lsr #31
 80002c4:	f141 0100 	adc.w	r1, r1, #0
 80002c8:	ea5e 0e43 	orrs.w	lr, lr, r3, lsl #1
 80002cc:	bf08      	it	eq
 80002ce:	ea20 70d3 	biceq.w	r0, r0, r3, lsr #31
 80002d2:	bd70      	pop	{r4, r5, r6, pc}
 80002d4:	f1c4 0520 	rsb	r5, r4, #32
 80002d8:	fa00 f205 	lsl.w	r2, r0, r5
 80002dc:	ea4e 0e02 	orr.w	lr, lr, r2
 80002e0:	fa20 f304 	lsr.w	r3, r0, r4
 80002e4:	fa01 f205 	lsl.w	r2, r1, r5
 80002e8:	ea43 0302 	orr.w	r3, r3, r2
 80002ec:	fa21 f004 	lsr.w	r0, r1, r4
 80002f0:	f001 4100 	and.w	r1, r1, #2147483648	@ 0x80000000
 80002f4:	fa21 f204 	lsr.w	r2, r1, r4
 80002f8:	ea20 0002 	bic.w	r0, r0, r2
 80002fc:	eb00 70d3 	add.w	r0, r0, r3, lsr #31
 8000300:	ea5e 0e43 	orrs.w	lr, lr, r3, lsl #1
 8000304:	bf08      	it	eq
 8000306:	ea20 70d3 	biceq.w	r0, r0, r3, lsr #31
 800030a:	bd70      	pop	{r4, r5, r6, pc}
 800030c:	f094 0f00 	teq	r4, #0
 8000310:	d10f      	bne.n	8000332 <__aeabi_dmul+0x1c2>
 8000312:	f001 4600 	and.w	r6, r1, #2147483648	@ 0x80000000
 8000316:	0040      	lsls	r0, r0, #1
 8000318:	eb41 0101 	adc.w	r1, r1, r1
 800031c:	f411 1f80 	tst.w	r1, #1048576	@ 0x100000
 8000320:	bf08      	it	eq
 8000322:	3c01      	subeq	r4, #1
 8000324:	d0f7      	beq.n	8000316 <__aeabi_dmul+0x1a6>
 8000326:	ea41 0106 	orr.w	r1, r1, r6
 800032a:	f095 0f00 	teq	r5, #0
 800032e:	bf18      	it	ne
 8000330:	4770      	bxne	lr
 8000332:	f003 4600 	and.w	r6, r3, #2147483648	@ 0x80000000
 8000336:	0052      	lsls	r2, r2, #1
 8000338:	eb43 0303 	adc.w	r3, r3, r3
 800033c:	f413 1f80 	tst.w	r3, #1048576	@ 0x100000
 8000340:	bf08      	it	eq
 8000342:	3d01      	subeq	r5, #1
 8000344:	d0f7      	beq.n	8000336 <__aeabi_dmul+0x1c6>
 8000346:	ea43 0306 	orr.w	r3, r3, r6
 800034a:	4770      	bx	lr
 800034c:	ea94 0f0c 	teq	r4, ip
 8000350:	ea0c 5513 	and.w	r5, ip, r3, lsr #20
 8000354:	bf18      	it	ne
 8000356:	ea95 0f0c 	teqne	r5, ip
 800035a:	d00c      	beq.n	8000376 <__aeabi_dmul+0x206>
 800035c:	ea50 0641 	orrs.w	r6, r0, r1, lsl #1
 8000360:	bf18      	it	ne
 8000362:	ea52 0643 	orrsne.w	r6, r2, r3, lsl #1
 8000366:	d1d1      	bne.n	800030c <__aeabi_dmul+0x19c>
 8000368:	ea81 0103 	eor.w	r1, r1, r3
 800036c:	f001 4100 	and.w	r1, r1, #2147483648	@ 0x80000000
 8000370:	f04f 0000 	mov.w	r0, #0
 8000374:	bd70      	pop	{r4, r5, r6, pc}
 8000376:	ea50 0641 	orrs.w	r6, r0, r1, lsl #1
 800037a:	bf06      	itte	eq
 800037c:	4610      	moveq	r0, r2
 800037e:	4619      	moveq	r1, r3
 8000380:	ea52 0643 	orrsne.w	r6, r2, r3, lsl #1
 8000384:	d019      	beq.n	80003ba <__aeabi_dmul+0x24a>
 8000386:	ea94 0f0c 	teq	r4, ip
 800038a:	d102      	bne.n	8000392 <__aeabi_dmul+0x222>
 800038c:	ea50 3601 	orrs.w	r6, r0, r1, lsl #12
 8000390:	d113      	bne.n	80003ba <__aeabi_dmul+0x24a>
 8000392:	ea95 0f0c 	teq	r5, ip
 8000396:	d105      	bne.n	80003a4 <__aeabi_dmul+0x234>
 8000398:	ea52 3603 	orrs.w	r6, r2, r3, lsl #12
 800039c:	bf1c      	itt	ne
 800039e:	4610      	movne	r0, r2
 80003a0:	4619      	movne	r1, r3
 80003a2:	d10a      	bne.n	80003ba <__aeabi_dmul+0x24a>
 80003a4:	ea81 0103 	eor.w	r1, r1, r3
 80003a8:	f001 4100 	and.w	r1, r1, #2147483648	@ 0x80000000
 80003ac:	f041 41fe 	orr.w	r1, r1, #2130706432	@ 0x7f000000
 80003b0:	f441 0170 	orr.w	r1, r1, #15728640	@ 0xf00000
 80003b4:	f04f 0000 	mov.w	r0, #0
 80003b8:	bd70      	pop	{r4, r5, r6, pc}
 80003ba:	f041 41fe 	orr.w	r1, r1, #2130706432	@ 0x7f000000
 80003be:	f441 0178 	orr.w	r1, r1, #16252928	@ 0xf80000
 80003c2:	bd70      	pop	{r4, r5, r6, pc}

080003c4 <__aeabi_drsub>:
 80003c4:	f081 4100 	eor.w	r1, r1, #2147483648	@ 0x80000000
 80003c8:	e002      	b.n	80003d0 <__adddf3>
 80003ca:	bf00      	nop

080003cc <__aeabi_dsub>:
 80003cc:	f083 4300 	eor.w	r3, r3, #2147483648	@ 0x80000000

080003d0 <__adddf3>:
 80003d0:	b530      	push	{r4, r5, lr}
 80003d2:	ea4f 0441 	mov.w	r4, r1, lsl #1
 80003d6:	ea4f 0543 	mov.w	r5, r3, lsl #1
 80003da:	ea94 0f05 	teq	r4, r5
 80003de:	bf08      	it	eq
 80003e0:	ea90 0f02 	teqeq	r0, r2
 80003e4:	bf1f      	itttt	ne
 80003e6:	ea54 0c00 	orrsne.w	ip, r4, r0
 80003ea:	ea55 0c02 	orrsne.w	ip, r5, r2
 80003ee:	ea7f 5c64 	mvnsne.w	ip, r4, asr #21
 80003f2:	ea7f 5c65 	mvnsne.w	ip, r5, asr #21
 80003f6:	f000 80e2 	beq.w	80005be <__adddf3+0x1ee>
 80003fa:	ea4f 5454 	mov.w	r4, r4, lsr #21
 80003fe:	ebd4 5555 	rsbs	r5, r4, r5, lsr #21
 8000402:	bfb8      	it	lt
 8000404:	426d      	neglt	r5, r5
 8000406:	dd0c      	ble.n	8000422 <__adddf3+0x52>
 8000408:	442c      	add	r4, r5
 800040a:	ea80 0202 	eor.w	r2, r0, r2
 800040e:	ea81 0303 	eor.w	r3, r1, r3
 8000412:	ea82 0000 	eor.w	r0, r2, r0
 8000416:	ea83 0101 	eor.w	r1, r3, r1
 800041a:	ea80 0202 	eor.w	r2, r0, r2
 800041e:	ea81 0303 	eor.w	r3, r1, r3
 8000422:	2d36      	cmp	r5, #54	@ 0x36
 8000424:	bf88      	it	hi
 8000426:	bd30      	pophi	{r4, r5, pc}
 8000428:	f011 4f00 	tst.w	r1, #2147483648	@ 0x80000000
 800042c:	ea4f 3101 	mov.w	r1, r1, lsl #12
 8000430:	f44f 1c80 	mov.w	ip, #1048576	@ 0x100000
 8000434:	ea4c 3111 	orr.w	r1, ip, r1, lsr #12
 8000438:	d002      	beq.n	8000440 <__adddf3+0x70>
 800043a:	4240      	negs	r0, r0
 800043c:	eb61 0141 	sbc.w	r1, r1, r1, lsl #1
 8000440:	f013 4f00 	tst.w	r3, #2147483648	@ 0x80000000
 8000444:	ea4f 3303 	mov.w	r3, r3, lsl #12
 8000448:	ea4c 3313 	orr.w	r3, ip, r3, lsr #12
 800044c:	d002      	beq.n	8000454 <__adddf3+0x84>
 800044e:	4252      	negs	r2, r2
 8000450:	eb63 0343 	sbc.w	r3, r3, r3, lsl #1
 8000454:	ea94 0f05 	teq	r4, r5
 8000458:	f000 80a7 	beq.w	80005aa <__adddf3+0x1da>
 800045c:	f1a4 0401 	sub.w	r4, r4, #1
 8000460:	f1d5 0e20 	rsbs	lr, r5, #32
 8000464:	db0d      	blt.n	8000482 <__adddf3+0xb2>
 8000466:	fa02 fc0e 	lsl.w	ip, r2, lr
 800046a:	fa22 f205 	lsr.w	r2, r2, r5
 800046e:	1880      	adds	r0, r0, r2
 8000470:	f141 0100 	adc.w	r1, r1, #0
 8000474:	fa03 f20e 	lsl.w	r2, r3, lr
 8000478:	1880      	adds	r0, r0, r2
 800047a:	fa43 f305 	asr.w	r3, r3, r5
 800047e:	4159      	adcs	r1, r3
 8000480:	e00e      	b.n	80004a0 <__adddf3+0xd0>
 8000482:	f1a5 0520 	sub.w	r5, r5, #32
 8000486:	f10e 0e20 	add.w	lr, lr, #32
 800048a:	2a01      	cmp	r2, #1
 800048c:	fa03 fc0e 	lsl.w	ip, r3, lr
 8000490:	bf28      	it	cs
 8000492:	f04c 0c02 	orrcs.w	ip, ip, #2
 8000496:	fa43 f305 	asr.w	r3, r3, r5
 800049a:	18c0      	adds	r0, r0, r3
 800049c:	eb51 71e3 	adcs.w	r1, r1, r3, asr #31
 80004a0:	f001 4500 	and.w	r5, r1, #2147483648	@ 0x80000000
 80004a4:	d507      	bpl.n	80004b6 <__adddf3+0xe6>
 80004a6:	f04f 0e00 	mov.w	lr, #0
 80004aa:	f1dc 0c00 	rsbs	ip, ip, #0
 80004ae:	eb7e 0000 	sbcs.w	r0, lr, r0
 80004b2:	eb6e 0101 	sbc.w	r1, lr, r1
 80004b6:	f5b1 1f80 	cmp.w	r1, #1048576	@ 0x100000
 80004ba:	d31b      	bcc.n	80004f4 <__adddf3+0x124>
 80004bc:	f5b1 1f00 	cmp.w	r1, #2097152	@ 0x200000
 80004c0:	d30c      	bcc.n	80004dc <__adddf3+0x10c>
 80004c2:	0849      	lsrs	r1, r1, #1
 80004c4:	ea5f 0030 	movs.w	r0, r0, rrx
 80004c8:	ea4f 0c3c 	mov.w	ip, ip, rrx
 80004cc:	f104 0401 	add.w	r4, r4, #1
 80004d0:	ea4f 5244 	mov.w	r2, r4, lsl #21
 80004d4:	f512 0f80 	cmn.w	r2, #4194304	@ 0x400000
 80004d8:	f080 809a 	bcs.w	8000610 <__adddf3+0x240>
 80004dc:	f1bc 4f00 	cmp.w	ip, #2147483648	@ 0x80000000
 80004e0:	bf08      	it	eq
 80004e2:	ea5f 0c50 	movseq.w	ip, r0, lsr #1
 80004e6:	f150 0000 	adcs.w	r0, r0, #0
 80004ea:	eb41 5104 	adc.w	r1, r1, r4, lsl #20
 80004ee:	ea41 0105 	orr.w	r1, r1, r5
 80004f2:	bd30      	pop	{r4, r5, pc}
 80004f4:	ea5f 0c4c 	movs.w	ip, ip, lsl #1
 80004f8:	4140      	adcs	r0, r0
 80004fa:	eb41 0101 	adc.w	r1, r1, r1
 80004fe:	3c01      	subs	r4, #1
 8000500:	bf28      	it	cs
 8000502:	f5b1 1f80 	cmpcs.w	r1, #1048576	@ 0x100000
 8000506:	d2e9      	bcs.n	80004dc <__adddf3+0x10c>
 8000508:	f091 0f00 	teq	r1, #0
 800050c:	bf04      	itt	eq
 800050e:	4601      	moveq	r1, r0
 8000510:	2000      	moveq	r0, #0
 8000512:	fab1 f381 	clz	r3, r1
 8000516:	bf08      	it	eq
 8000518:	3320      	addeq	r3, #32
 800051a:	f1a3 030b 	sub.w	r3, r3, #11
 800051e:	f1b3 0220 	subs.w	r2, r3, #32
 8000522:	da0c      	bge.n	800053e <__adddf3+0x16e>
 8000524:	320c      	adds	r2, #12
 8000526:	dd08      	ble.n	800053a <__adddf3+0x16a>
 8000528:	f102 0c14 	add.w	ip, r2, #20
 800052c:	f1c2 020c 	rsb	r2, r2, #12
 8000530:	fa01 f00c 	lsl.w	r0, r1, ip
 8000534:	fa21 f102 	lsr.w	r1, r1, r2
 8000538:	e00c      	b.n	8000554 <__adddf3+0x184>
 800053a:	f102 0214 	add.w	r2, r2, #20
 800053e:	bfd8      	it	le
 8000540:	f1c2 0c20 	rsble	ip, r2, #32
 8000544:	fa01 f102 	lsl.w	r1, r1, r2
 8000548:	fa20 fc0c 	lsr.w	ip, r0, ip
 800054c:	bfdc      	itt	le
 800054e:	ea41 010c 	orrle.w	r1, r1, ip
 8000552:	4090      	lslle	r0, r2
 8000554:	1ae4      	subs	r4, r4, r3
 8000556:	bfa2      	ittt	ge
 8000558:	eb01 5104 	addge.w	r1, r1, r4, lsl #20
 800055c:	4329      	orrge	r1, r5
 800055e:	bd30      	popge	{r4, r5, pc}
 8000560:	ea6f 0404 	mvn.w	r4, r4
 8000564:	3c1f      	subs	r4, #31
 8000566:	da1c      	bge.n	80005a2 <__adddf3+0x1d2>
 8000568:	340c      	adds	r4, #12
 800056a:	dc0e      	bgt.n	800058a <__adddf3+0x1ba>
 800056c:	f104 0414 	add.w	r4, r4, #20
 8000570:	f1c4 0220 	rsb	r2, r4, #32
 8000574:	fa20 f004 	lsr.w	r0, r0, r4
 8000578:	fa01 f302 	lsl.w	r3, r1, r2
 800057c:	ea40 0003 	orr.w	r0, r0, r3
 8000580:	fa21 f304 	lsr.w	r3, r1, r4
 8000584:	ea45 0103 	orr.w	r1, r5, r3
 8000588:	bd30      	pop	{r4, r5, pc}
 800058a:	f1c4 040c 	rsb	r4, r4, #12
 800058e:	f1c4 0220 	rsb	r2, r4, #32
 8000592:	fa20 f002 	lsr.w	r0, r0, r2
 8000596:	fa01 f304 	lsl.w	r3, r1, r4
 800059a:	ea40 0003 	orr.w	r0, r0, r3
 800059e:	4629      	mov	r1, r5
 80005a0:	bd30      	pop	{r4, r5, pc}
 80005a2:	fa21 f004 	lsr.w	r0, r1, r4
 80005a6:	4629      	mov	r1, r5
 80005a8:	bd30      	pop	{r4, r5, pc}
 80005aa:	f094 0f00 	teq	r4, #0
 80005ae:	f483 1380 	eor.w	r3, r3, #1048576	@ 0x100000
 80005b2:	bf06      	itte	eq
 80005b4:	f481 1180 	eoreq.w	r1, r1, #1048576	@ 0x100000
 80005b8:	3401      	addeq	r4, #1
 80005ba:	3d01      	subne	r5, #1
 80005bc:	e74e      	b.n	800045c <__adddf3+0x8c>
 80005be:	ea7f 5c64 	mvns.w	ip, r4, asr #21
 80005c2:	bf18      	it	ne
 80005c4:	ea7f 5c65 	mvnsne.w	ip, r5, asr #21
 80005c8:	d029      	beq.n	800061e <__adddf3+0x24e>
 80005ca:	ea94 0f05 	teq	r4, r5
 80005ce:	bf08      	it	eq
 80005d0:	ea90 0f02 	teqeq	r0, r2
 80005d4:	d005      	beq.n	80005e2 <__adddf3+0x212>
 80005d6:	ea54 0c00 	orrs.w	ip, r4, r0
 80005da:	bf04      	itt	eq
 80005dc:	4619      	moveq	r1, r3
 80005de:	4610      	moveq	r0, r2
 80005e0:	bd30      	pop	{r4, r5, pc}
 80005e2:	ea91 0f03 	teq	r1, r3
 80005e6:	bf1e      	ittt	ne
 80005e8:	2100      	movne	r1, #0
 80005ea:	2000      	movne	r0, #0
 80005ec:	bd30      	popne	{r4, r5, pc}
 80005ee:	ea5f 5c54 	movs.w	ip, r4, lsr #21
 80005f2:	d105      	bne.n	8000600 <__adddf3+0x230>
 80005f4:	0040      	lsls	r0, r0, #1
 80005f6:	4149      	adcs	r1, r1
 80005f8:	bf28      	it	cs
 80005fa:	f041 4100 	orrcs.w	r1, r1, #2147483648	@ 0x80000000
 80005fe:	bd30      	pop	{r4, r5, pc}
 8000600:	f514 0480 	adds.w	r4, r4, #4194304	@ 0x400000
 8000604:	bf3c      	itt	cc
 8000606:	f501 1180 	addcc.w	r1, r1, #1048576	@ 0x100000
 800060a:	bd30      	popcc	{r4, r5, pc}
 800060c:	f001 4500 	and.w	r5, r1, #2147483648	@ 0x80000000
 8000610:	f045 41fe 	orr.w	r1, r5, #2130706432	@ 0x7f000000
 8000614:	f441 0170 	orr.w	r1, r1, #15728640	@ 0xf00000
 8000618:	f04f 0000 	mov.w	r0, #0
 800061c:	bd30      	pop	{r4, r5, pc}
 800061e:	ea7f 5c64 	mvns.w	ip, r4, asr #21
 8000622:	bf1a      	itte	ne
 8000624:	4619      	movne	r1, r3
 8000626:	4610      	movne	r0, r2
 8000628:	ea7f 5c65 	mvnseq.w	ip, r5, asr #21
 800062c:	bf1c      	itt	ne
 800062e:	460b      	movne	r3, r1
 8000630:	4602      	movne	r2, r0
 8000632:	ea50 3401 	orrs.w	r4, r0, r1, lsl #12
 8000636:	bf06      	itte	eq
 8000638:	ea52 3503 	orrseq.w	r5, r2, r3, lsl #12
 800063c:	ea91 0f03 	teqeq	r1, r3
 8000640:	f441 2100 	orrne.w	r1, r1, #524288	@ 0x80000
 8000644:	bd30      	pop	{r4, r5, pc}
 8000646:	bf00      	nop

08000648 <__aeabi_ui2d>:
 8000648:	f090 0f00 	teq	r0, #0
 800064c:	bf04      	itt	eq
 800064e:	2100      	moveq	r1, #0
 8000650:	4770      	bxeq	lr
 8000652:	b530      	push	{r4, r5, lr}
 8000654:	f44f 6480 	mov.w	r4, #1024	@ 0x400
 8000658:	f104 0432 	add.w	r4, r4, #50	@ 0x32
 800065c:	f04f 0500 	mov.w	r5, #0
 8000660:	f04f 0100 	mov.w	r1, #0
 8000664:	e750      	b.n	8000508 <__adddf3+0x138>
 8000666:	bf00      	nop

08000668 <__aeabi_i2d>:
 8000668:	f090 0f00 	teq	r0, #0
 800066c:	bf04      	itt	eq
 800066e:	2100      	moveq	r1, #0
 8000670:	4770      	bxeq	lr
 8000672:	b530      	push	{r4, r5, lr}
 8000674:	f44f 6480 	mov.w	r4, #1024	@ 0x400
 8000678:	f104 0432 	add.w	r4, r4, #50	@ 0x32
 800067c:	f010 4500 	ands.w	r5, r0, #2147483648	@ 0x80000000
 8000680:	bf48      	it	mi
 8000682:	4240      	negmi	r0, r0
 8000684:	f04f 0100 	mov.w	r1, #0
 8000688:	e73e      	b.n	8000508 <__adddf3+0x138>
 800068a:	bf00      	nop

0800068c <__aeabi_f2d>:
 800068c:	0042      	lsls	r2, r0, #1
 800068e:	ea4f 01e2 	mov.w	r1, r2, asr #3
 8000692:	ea4f 0131 	mov.w	r1, r1, rrx
 8000696:	ea4f 7002 	mov.w	r0, r2, lsl #28
 800069a:	bf1f      	itttt	ne
 800069c:	f012 437f 	andsne.w	r3, r2, #4278190080	@ 0xff000000
 80006a0:	f093 4f7f 	teqne	r3, #4278190080	@ 0xff000000
 80006a4:	f081 5160 	eorne.w	r1, r1, #939524096	@ 0x38000000
 80006a8:	4770      	bxne	lr
 80006aa:	f032 427f 	bics.w	r2, r2, #4278190080	@ 0xff000000
 80006ae:	bf08      	it	eq
 80006b0:	4770      	bxeq	lr
 80006b2:	f093 4f7f 	teq	r3, #4278190080	@ 0xff000000
 80006b6:	bf04      	itt	eq
 80006b8:	f441 2100 	orreq.w	r1, r1, #524288	@ 0x80000
 80006bc:	4770      	bxeq	lr
 80006be:	b530      	push	{r4, r5, lr}
 80006c0:	f44f 7460 	mov.w	r4, #896	@ 0x380
 80006c4:	f001 4500 	and.w	r5, r1, #2147483648	@ 0x80000000
 80006c8:	f021 4100 	bic.w	r1, r1, #2147483648	@ 0x80000000
 80006cc:	e71c      	b.n	8000508 <__adddf3+0x138>
 80006ce:	bf00      	nop

080006d0 <__aeabi_ul2d>:
 80006d0:	ea50 0201 	orrs.w	r2, r0, r1
 80006d4:	bf08      	it	eq
 80006d6:	4770      	bxeq	lr
 80006d8:	b530      	push	{r4, r5, lr}
 80006da:	f04f 0500 	mov.w	r5, #0
 80006de:	e00a      	b.n	80006f6 <__aeabi_l2d+0x16>

080006e0 <__aeabi_l2d>:
 80006e0:	ea50 0201 	orrs.w	r2, r0, r1
 80006e4:	bf08      	it	eq
 80006e6:	4770      	bxeq	lr
 80006e8:	b530      	push	{r4, r5, lr}
 80006ea:	f011 4500 	ands.w	r5, r1, #2147483648	@ 0x80000000
 80006ee:	d502      	bpl.n	80006f6 <__aeabi_l2d+0x16>
 80006f0:	4240      	negs	r0, r0
 80006f2:	eb61 0141 	sbc.w	r1, r1, r1, lsl #1
 80006f6:	f44f 6480 	mov.w	r4, #1024	@ 0x400
 80006fa:	f104 0432 	add.w	r4, r4, #50	@ 0x32
 80006fe:	ea5f 5c91 	movs.w	ip, r1, lsr #22
 8000702:	f43f aed8 	beq.w	80004b6 <__adddf3+0xe6>
 8000706:	f04f 0203 	mov.w	r2, #3
 800070a:	ea5f 0cdc 	movs.w	ip, ip, lsr #3
 800070e:	bf18      	it	ne
 8000710:	3203      	addne	r2, #3
 8000712:	ea5f 0cdc 	movs.w	ip, ip, lsr #3
 8000716:	bf18      	it	ne
 8000718:	3203      	addne	r2, #3
 800071a:	eb02 02dc 	add.w	r2, r2, ip, lsr #3
 800071e:	f1c2 0320 	rsb	r3, r2, #32
 8000722:	fa00 fc03 	lsl.w	ip, r0, r3
 8000726:	fa20 f002 	lsr.w	r0, r0, r2
 800072a:	fa01 fe03 	lsl.w	lr, r1, r3
 800072e:	ea40 000e 	orr.w	r0, r0, lr
 8000732:	fa21 f102 	lsr.w	r1, r1, r2
 8000736:	4414      	add	r4, r2
 8000738:	e6bd      	b.n	80004b6 <__adddf3+0xe6>
 800073a:	bf00      	nop

0800073c <__aeabi_d2f>:
 800073c:	ea4f 0241 	mov.w	r2, r1, lsl #1
 8000740:	f1b2 43e0 	subs.w	r3, r2, #1879048192	@ 0x70000000
 8000744:	bf24      	itt	cs
 8000746:	f5b3 1c00 	subscs.w	ip, r3, #2097152	@ 0x200000
 800074a:	f1dc 5cfe 	rsbscs	ip, ip, #532676608	@ 0x1fc00000
 800074e:	d90d      	bls.n	800076c <__aeabi_d2f+0x30>
 8000750:	f001 4c00 	and.w	ip, r1, #2147483648	@ 0x80000000
 8000754:	ea4f 02c0 	mov.w	r2, r0, lsl #3
 8000758:	ea4c 7050 	orr.w	r0, ip, r0, lsr #29
 800075c:	f1b2 4f00 	cmp.w	r2, #2147483648	@ 0x80000000
 8000760:	eb40 0083 	adc.w	r0, r0, r3, lsl #2
 8000764:	bf08      	it	eq
 8000766:	f020 0001 	biceq.w	r0, r0, #1
 800076a:	4770      	bx	lr
 800076c:	f011 4f80 	tst.w	r1, #1073741824	@ 0x40000000
 8000770:	d121      	bne.n	80007b6 <__aeabi_d2f+0x7a>
 8000772:	f113 7238 	adds.w	r2, r3, #48234496	@ 0x2e00000
 8000776:	bfbc      	itt	lt
 8000778:	f001 4000 	andlt.w	r0, r1, #2147483648	@ 0x80000000
 800077c:	4770      	bxlt	lr
 800077e:	f441 1180 	orr.w	r1, r1, #1048576	@ 0x100000
 8000782:	ea4f 5252 	mov.w	r2, r2, lsr #21
 8000786:	f1c2 0218 	rsb	r2, r2, #24
 800078a:	f1c2 0c20 	rsb	ip, r2, #32
 800078e:	fa10 f30c 	lsls.w	r3, r0, ip
 8000792:	fa20 f002 	lsr.w	r0, r0, r2
 8000796:	bf18      	it	ne
 8000798:	f040 0001 	orrne.w	r0, r0, #1
 800079c:	ea4f 23c1 	mov.w	r3, r1, lsl #11
 80007a0:	ea4f 23d3 	mov.w	r3, r3, lsr #11
 80007a4:	fa03 fc0c 	lsl.w	ip, r3, ip
 80007a8:	ea40 000c 	orr.w	r0, r0, ip
 80007ac:	fa23 f302 	lsr.w	r3, r3, r2
 80007b0:	ea4f 0343 	mov.w	r3, r3, lsl #1
 80007b4:	e7cc      	b.n	8000750 <__aeabi_d2f+0x14>
 80007b6:	ea7f 5362 	mvns.w	r3, r2, asr #21
 80007ba:	d107      	bne.n	80007cc <__aeabi_d2f+0x90>
 80007bc:	ea50 3301 	orrs.w	r3, r0, r1, lsl #12
 80007c0:	bf1e      	ittt	ne
 80007c2:	f04f 40fe 	movne.w	r0, #2130706432	@ 0x7f000000
 80007c6:	f440 0040 	orrne.w	r0, r0, #12582912	@ 0xc00000
 80007ca:	4770      	bxne	lr
 80007cc:	f001 4000 	and.w	r0, r1, #2147483648	@ 0x80000000
 80007d0:	f040 40fe 	orr.w	r0, r0, #2130706432	@ 0x7f000000
 80007d4:	f440 0000 	orr.w	r0, r0, #8388608	@ 0x800000
 80007d8:	4770      	bx	lr
 80007da:	bf00      	nop

080007dc <__aeabi_frsub>:
 80007dc:	f080 4000 	eor.w	r0, r0, #2147483648	@ 0x80000000
 80007e0:	e002      	b.n	80007e8 <__addsf3>
 80007e2:	bf00      	nop

080007e4 <__aeabi_fsub>:
 80007e4:	f081 4100 	eor.w	r1, r1, #2147483648	@ 0x80000000

080007e8 <__addsf3>:
 80007e8:	0042      	lsls	r2, r0, #1
 80007ea:	bf1f      	itttt	ne
 80007ec:	ea5f 0341 	movsne.w	r3, r1, lsl #1
 80007f0:	ea92 0f03 	teqne	r2, r3
 80007f4:	ea7f 6c22 	mvnsne.w	ip, r2, asr #24
 80007f8:	ea7f 6c23 	mvnsne.w	ip, r3, asr #24
 80007fc:	d06a      	beq.n	80008d4 <__addsf3+0xec>
 80007fe:	ea4f 6212 	mov.w	r2, r2, lsr #24
 8000802:	ebd2 6313 	rsbs	r3, r2, r3, lsr #24
 8000806:	bfc1      	itttt	gt
 8000808:	18d2      	addgt	r2, r2, r3
 800080a:	4041      	eorgt	r1, r0
 800080c:	4048      	eorgt	r0, r1
 800080e:	4041      	eorgt	r1, r0
 8000810:	bfb8      	it	lt
 8000812:	425b      	neglt	r3, r3
 8000814:	2b19      	cmp	r3, #25
 8000816:	bf88      	it	hi
 8000818:	4770      	bxhi	lr
 800081a:	f010 4f00 	tst.w	r0, #2147483648	@ 0x80000000
 800081e:	f440 0000 	orr.w	r0, r0, #8388608	@ 0x800000
 8000822:	f020 407f 	bic.w	r0, r0, #4278190080	@ 0xff000000
 8000826:	bf18      	it	ne
 8000828:	4240      	negne	r0, r0
 800082a:	f011 4f00 	tst.w	r1, #2147483648	@ 0x80000000
 800082e:	f441 0100 	orr.w	r1, r1, #8388608	@ 0x800000
 8000832:	f021 417f 	bic.w	r1, r1, #4278190080	@ 0xff000000
 8000836:	bf18      	it	ne
 8000838:	4249      	negne	r1, r1
 800083a:	ea92 0f03 	teq	r2, r3
 800083e:	d03f      	beq.n	80008c0 <__addsf3+0xd8>
 8000840:	f1a2 0201 	sub.w	r2, r2, #1
 8000844:	fa41 fc03 	asr.w	ip, r1, r3
 8000848:	eb10 000c 	adds.w	r0, r0, ip
 800084c:	f1c3 0320 	rsb	r3, r3, #32
 8000850:	fa01 f103 	lsl.w	r1, r1, r3
 8000854:	f000 4300 	and.w	r3, r0, #2147483648	@ 0x80000000
 8000858:	d502      	bpl.n	8000860 <__addsf3+0x78>
 800085a:	4249      	negs	r1, r1
 800085c:	eb60 0040 	sbc.w	r0, r0, r0, lsl #1
 8000860:	f5b0 0f00 	cmp.w	r0, #8388608	@ 0x800000
 8000864:	d313      	bcc.n	800088e <__addsf3+0xa6>
 8000866:	f1b0 7f80 	cmp.w	r0, #16777216	@ 0x1000000
 800086a:	d306      	bcc.n	800087a <__addsf3+0x92>
 800086c:	0840      	lsrs	r0, r0, #1
 800086e:	ea4f 0131 	mov.w	r1, r1, rrx
 8000872:	f102 0201 	add.w	r2, r2, #1
 8000876:	2afe      	cmp	r2, #254	@ 0xfe
 8000878:	d251      	bcs.n	800091e <__addsf3+0x136>
 800087a:	f1b1 4f00 	cmp.w	r1, #2147483648	@ 0x80000000
 800087e:	eb40 50c2 	adc.w	r0, r0, r2, lsl #23
 8000882:	bf08      	it	eq
 8000884:	f020 0001 	biceq.w	r0, r0, #1
 8000888:	ea40 0003 	orr.w	r0, r0, r3
 800088c:	4770      	bx	lr
 800088e:	0049      	lsls	r1, r1, #1
 8000890:	eb40 0000 	adc.w	r0, r0, r0
 8000894:	3a01      	subs	r2, #1
 8000896:	bf28      	it	cs
 8000898:	f5b0 0f00 	cmpcs.w	r0, #8388608	@ 0x800000
 800089c:	d2ed      	bcs.n	800087a <__addsf3+0x92>
 800089e:	fab0 fc80 	clz	ip, r0
 80008a2:	f1ac 0c08 	sub.w	ip, ip, #8
 80008a6:	ebb2 020c 	subs.w	r2, r2, ip
 80008aa:	fa00 f00c 	lsl.w	r0, r0, ip
 80008ae:	bfaa      	itet	ge
 80008b0:	eb00 50c2 	addge.w	r0, r0, r2, lsl #23
 80008b4:	4252      	neglt	r2, r2
 80008b6:	4318      	orrge	r0, r3
 80008b8:	bfbc      	itt	lt
 80008ba:	40d0      	lsrlt	r0, r2
 80008bc:	4318      	orrlt	r0, r3
 80008be:	4770      	bx	lr
 80008c0:	f092 0f00 	teq	r2, #0
 80008c4:	f481 0100 	eor.w	r1, r1, #8388608	@ 0x800000
 80008c8:	bf06      	itte	eq
 80008ca:	f480 0000 	eoreq.w	r0, r0, #8388608	@ 0x800000
 80008ce:	3201      	addeq	r2, #1
 80008d0:	3b01      	subne	r3, #1
 80008d2:	e7b5      	b.n	8000840 <__addsf3+0x58>
 80008d4:	ea4f 0341 	mov.w	r3, r1, lsl #1
 80008d8:	ea7f 6c22 	mvns.w	ip, r2, asr #24
 80008dc:	bf18      	it	ne
 80008de:	ea7f 6c23 	mvnsne.w	ip, r3, asr #24
 80008e2:	d021      	beq.n	8000928 <__addsf3+0x140>
 80008e4:	ea92 0f03 	teq	r2, r3
 80008e8:	d004      	beq.n	80008f4 <__addsf3+0x10c>
 80008ea:	f092 0f00 	teq	r2, #0
 80008ee:	bf08      	it	eq
 80008f0:	4608      	moveq	r0, r1
 80008f2:	4770      	bx	lr
 80008f4:	ea90 0f01 	teq	r0, r1
 80008f8:	bf1c      	itt	ne
 80008fa:	2000      	movne	r0, #0
 80008fc:	4770      	bxne	lr
 80008fe:	f012 4f7f 	tst.w	r2, #4278190080	@ 0xff000000
 8000902:	d104      	bne.n	800090e <__addsf3+0x126>
 8000904:	0040      	lsls	r0, r0, #1
 8000906:	bf28      	it	cs
 8000908:	f040 4000 	orrcs.w	r0, r0, #2147483648	@ 0x80000000
 800090c:	4770      	bx	lr
 800090e:	f112 7200 	adds.w	r2, r2, #33554432	@ 0x2000000
 8000912:	bf3c      	itt	cc
 8000914:	f500 0000 	addcc.w	r0, r0, #8388608	@ 0x800000
 8000918:	4770      	bxcc	lr
 800091a:	f000 4300 	and.w	r3, r0, #2147483648	@ 0x80000000
 800091e:	f043 40fe 	orr.w	r0, r3, #2130706432	@ 0x7f000000
 8000922:	f440 0000 	orr.w	r0, r0, #8388608	@ 0x800000
 8000926:	4770      	bx	lr
 8000928:	ea7f 6222 	mvns.w	r2, r2, asr #24
 800092c:	bf16      	itet	ne
 800092e:	4608      	movne	r0, r1
 8000930:	ea7f 6323 	mvnseq.w	r3, r3, asr #24
 8000934:	4601      	movne	r1, r0
 8000936:	0242      	lsls	r2, r0, #9
 8000938:	bf06      	itte	eq
 800093a:	ea5f 2341 	movseq.w	r3, r1, lsl #9
 800093e:	ea90 0f01 	teqeq	r0, r1
 8000942:	f440 0080 	orrne.w	r0, r0, #4194304	@ 0x400000
 8000946:	4770      	bx	lr

08000948 <__aeabi_ui2f>:
 8000948:	f04f 0300 	mov.w	r3, #0
 800094c:	e004      	b.n	8000958 <__aeabi_i2f+0x8>
 800094e:	bf00      	nop

08000950 <__aeabi_i2f>:
 8000950:	f010 4300 	ands.w	r3, r0, #2147483648	@ 0x80000000
 8000954:	bf48      	it	mi
 8000956:	4240      	negmi	r0, r0
 8000958:	ea5f 0c00 	movs.w	ip, r0
 800095c:	bf08      	it	eq
 800095e:	4770      	bxeq	lr
 8000960:	f043 4396 	orr.w	r3, r3, #1258291200	@ 0x4b000000
 8000964:	4601      	mov	r1, r0
 8000966:	f04f 0000 	mov.w	r0, #0
 800096a:	e01c      	b.n	80009a6 <__aeabi_l2f+0x2a>

0800096c <__aeabi_ul2f>:
 800096c:	ea50 0201 	orrs.w	r2, r0, r1
 8000970:	bf08      	it	eq
 8000972:	4770      	bxeq	lr
 8000974:	f04f 0300 	mov.w	r3, #0
 8000978:	e00a      	b.n	8000990 <__aeabi_l2f+0x14>
 800097a:	bf00      	nop

0800097c <__aeabi_l2f>:
 800097c:	ea50 0201 	orrs.w	r2, r0, r1
 8000980:	bf08      	it	eq
 8000982:	4770      	bxeq	lr
 8000984:	f011 4300 	ands.w	r3, r1, #2147483648	@ 0x80000000
 8000988:	d502      	bpl.n	8000990 <__aeabi_l2f+0x14>
 800098a:	4240      	negs	r0, r0
 800098c:	eb61 0141 	sbc.w	r1, r1, r1, lsl #1
 8000990:	ea5f 0c01 	movs.w	ip, r1
 8000994:	bf02      	ittt	eq
 8000996:	4684      	moveq	ip, r0
 8000998:	4601      	moveq	r1, r0
 800099a:	2000      	moveq	r0, #0
 800099c:	f043 43b6 	orr.w	r3, r3, #1526726656	@ 0x5b000000
 80009a0:	bf08      	it	eq
 80009a2:	f1a3 5380 	subeq.w	r3, r3, #268435456	@ 0x10000000
 80009a6:	f5a3 0300 	sub.w	r3, r3, #8388608	@ 0x800000
 80009aa:	fabc f28c 	clz	r2, ip
 80009ae:	3a08      	subs	r2, #8
 80009b0:	eba3 53c2 	sub.w	r3, r3, r2, lsl #23
 80009b4:	db10      	blt.n	80009d8 <__aeabi_l2f+0x5c>
 80009b6:	fa01 fc02 	lsl.w	ip, r1, r2
 80009ba:	4463      	add	r3, ip
 80009bc:	fa00 fc02 	lsl.w	ip, r0, r2
 80009c0:	f1c2 0220 	rsb	r2, r2, #32
 80009c4:	f1bc 4f00 	cmp.w	ip, #2147483648	@ 0x80000000
 80009c8:	fa20 f202 	lsr.w	r2, r0, r2
 80009cc:	eb43 0002 	adc.w	r0, r3, r2
 80009d0:	bf08      	it	eq
 80009d2:	f020 0001 	biceq.w	r0, r0, #1
 80009d6:	4770      	bx	lr
 80009d8:	f102 0220 	add.w	r2, r2, #32
 80009dc:	fa01 fc02 	lsl.w	ip, r1, r2
 80009e0:	f1c2 0220 	rsb	r2, r2, #32
 80009e4:	ea50 004c 	orrs.w	r0, r0, ip, lsl #1
 80009e8:	fa21 f202 	lsr.w	r2, r1, r2
 80009ec:	eb43 0002 	adc.w	r0, r3, r2
 80009f0:	bf08      	it	eq
 80009f2:	ea20 70dc 	biceq.w	r0, r0, ip, lsr #31
 80009f6:	4770      	bx	lr

080009f8 <__aeabi_fmul>:
 80009f8:	f04f 0cff 	mov.w	ip, #255	@ 0xff
 80009fc:	ea1c 52d0 	ands.w	r2, ip, r0, lsr #23
 8000a00:	bf1e      	ittt	ne
 8000a02:	ea1c 53d1 	andsne.w	r3, ip, r1, lsr #23
 8000a06:	ea92 0f0c 	teqne	r2, ip
 8000a0a:	ea93 0f0c 	teqne	r3, ip
 8000a0e:	d06f      	beq.n	8000af0 <__aeabi_fmul+0xf8>
 8000a10:	441a      	add	r2, r3
 8000a12:	ea80 0c01 	eor.w	ip, r0, r1
 8000a16:	0240      	lsls	r0, r0, #9
 8000a18:	bf18      	it	ne
 8000a1a:	ea5f 2141 	movsne.w	r1, r1, lsl #9
 8000a1e:	d01e      	beq.n	8000a5e <__aeabi_fmul+0x66>
 8000a20:	f04f 6300 	mov.w	r3, #134217728	@ 0x8000000
 8000a24:	ea43 1050 	orr.w	r0, r3, r0, lsr #5
 8000a28:	ea43 1151 	orr.w	r1, r3, r1, lsr #5
 8000a2c:	fba0 3101 	umull	r3, r1, r0, r1
 8000a30:	f00c 4000 	and.w	r0, ip, #2147483648	@ 0x80000000
 8000a34:	f5b1 0f00 	cmp.w	r1, #8388608	@ 0x800000
 8000a38:	bf3e      	ittt	cc
 8000a3a:	0049      	lslcc	r1, r1, #1
 8000a3c:	ea41 71d3 	orrcc.w	r1, r1, r3, lsr #31
 8000a40:	005b      	lslcc	r3, r3, #1
 8000a42:	ea40 0001 	orr.w	r0, r0, r1
 8000a46:	f162 027f 	sbc.w	r2, r2, #127	@ 0x7f
 8000a4a:	2afd      	cmp	r2, #253	@ 0xfd
 8000a4c:	d81d      	bhi.n	8000a8a <__aeabi_fmul+0x92>
 8000a4e:	f1b3 4f00 	cmp.w	r3, #2147483648	@ 0x80000000
 8000a52:	eb40 50c2 	adc.w	r0, r0, r2, lsl #23
 8000a56:	bf08      	it	eq
 8000a58:	f020 0001 	biceq.w	r0, r0, #1
 8000a5c:	4770      	bx	lr
 8000a5e:	f090 0f00 	teq	r0, #0
 8000a62:	f00c 4c00 	and.w	ip, ip, #2147483648	@ 0x80000000
 8000a66:	bf08      	it	eq
 8000a68:	0249      	lsleq	r1, r1, #9
 8000a6a:	ea4c 2050 	orr.w	r0, ip, r0, lsr #9
 8000a6e:	ea40 2051 	orr.w	r0, r0, r1, lsr #9
 8000a72:	3a7f      	subs	r2, #127	@ 0x7f
 8000a74:	bfc2      	ittt	gt
 8000a76:	f1d2 03ff 	rsbsgt	r3, r2, #255	@ 0xff
 8000a7a:	ea40 50c2 	orrgt.w	r0, r0, r2, lsl #23
 8000a7e:	4770      	bxgt	lr
 8000a80:	f440 0000 	orr.w	r0, r0, #8388608	@ 0x800000
 8000a84:	f04f 0300 	mov.w	r3, #0
 8000a88:	3a01      	subs	r2, #1
 8000a8a:	dc5d      	bgt.n	8000b48 <__aeabi_fmul+0x150>
 8000a8c:	f112 0f19 	cmn.w	r2, #25
 8000a90:	bfdc      	itt	le
 8000a92:	f000 4000 	andle.w	r0, r0, #2147483648	@ 0x80000000
 8000a96:	4770      	bxle	lr
 8000a98:	f1c2 0200 	rsb	r2, r2, #0
 8000a9c:	0041      	lsls	r1, r0, #1
 8000a9e:	fa21 f102 	lsr.w	r1, r1, r2
 8000aa2:	f1c2 0220 	rsb	r2, r2, #32
 8000aa6:	fa00 fc02 	lsl.w	ip, r0, r2
 8000aaa:	ea5f 0031 	movs.w	r0, r1, rrx
 8000aae:	f140 0000 	adc.w	r0, r0, #0
 8000ab2:	ea53 034c 	orrs.w	r3, r3, ip, lsl #1
 8000ab6:	bf08      	it	eq
 8000ab8:	ea20 70dc 	biceq.w	r0, r0, ip, lsr #31
 8000abc:	4770      	bx	lr
 8000abe:	f092 0f00 	teq	r2, #0
 8000ac2:	f000 4c00 	and.w	ip, r0, #2147483648	@ 0x80000000
 8000ac6:	bf02      	ittt	eq
 8000ac8:	0040      	lsleq	r0, r0, #1
 8000aca:	f410 0f00 	tsteq.w	r0, #8388608	@ 0x800000
 8000ace:	3a01      	subeq	r2, #1
 8000ad0:	d0f9      	beq.n	8000ac6 <__aeabi_fmul+0xce>
 8000ad2:	ea40 000c 	orr.w	r0, r0, ip
 8000ad6:	f093 0f00 	teq	r3, #0
 8000ada:	f001 4c00 	and.w	ip, r1, #2147483648	@ 0x80000000
 8000ade:	bf02      	ittt	eq
 8000ae0:	0049      	lsleq	r1, r1, #1
 8000ae2:	f411 0f00 	tsteq.w	r1, #8388608	@ 0x800000
 8000ae6:	3b01      	subeq	r3, #1
 8000ae8:	d0f9      	beq.n	8000ade <__aeabi_fmul+0xe6>
 8000aea:	ea41 010c 	orr.w	r1, r1, ip
 8000aee:	e78f      	b.n	8000a10 <__aeabi_fmul+0x18>
 8000af0:	ea0c 53d1 	and.w	r3, ip, r1, lsr #23
 8000af4:	ea92 0f0c 	teq	r2, ip
 8000af8:	bf18      	it	ne
 8000afa:	ea93 0f0c 	teqne	r3, ip
 8000afe:	d00a      	beq.n	8000b16 <__aeabi_fmul+0x11e>
 8000b00:	f030 4c00 	bics.w	ip, r0, #2147483648	@ 0x80000000
 8000b04:	bf18      	it	ne
 8000b06:	f031 4c00 	bicsne.w	ip, r1, #2147483648	@ 0x80000000
 8000b0a:	d1d8      	bne.n	8000abe <__aeabi_fmul+0xc6>
 8000b0c:	ea80 0001 	eor.w	r0, r0, r1
 8000b10:	f000 4000 	and.w	r0, r0, #2147483648	@ 0x80000000
 8000b14:	4770      	bx	lr
 8000b16:	f090 0f00 	teq	r0, #0
 8000b1a:	bf17      	itett	ne
 8000b1c:	f090 4f00 	teqne	r0, #2147483648	@ 0x80000000
 8000b20:	4608      	moveq	r0, r1
 8000b22:	f091 0f00 	teqne	r1, #0
 8000b26:	f091 4f00 	teqne	r1, #2147483648	@ 0x80000000
 8000b2a:	d014      	beq.n	8000b56 <__aeabi_fmul+0x15e>
 8000b2c:	ea92 0f0c 	teq	r2, ip
 8000b30:	d101      	bne.n	8000b36 <__aeabi_fmul+0x13e>
 8000b32:	0242      	lsls	r2, r0, #9
 8000b34:	d10f      	bne.n	8000b56 <__aeabi_fmul+0x15e>
 8000b36:	ea93 0f0c 	teq	r3, ip
 8000b3a:	d103      	bne.n	8000b44 <__aeabi_fmul+0x14c>
 8000b3c:	024b      	lsls	r3, r1, #9
 8000b3e:	bf18      	it	ne
 8000b40:	4608      	movne	r0, r1
 8000b42:	d108      	bne.n	8000b56 <__aeabi_fmul+0x15e>
 8000b44:	ea80 0001 	eor.w	r0, r0, r1
 8000b48:	f000 4000 	and.w	r0, r0, #2147483648	@ 0x80000000
 8000b4c:	f040 40fe 	orr.w	r0, r0, #2130706432	@ 0x7f000000
 8000b50:	f440 0000 	orr.w	r0, r0, #8388608	@ 0x800000
 8000b54:	4770      	bx	lr
 8000b56:	f040 40fe 	orr.w	r0, r0, #2130706432	@ 0x7f000000
 8000b5a:	f440 0040 	orr.w	r0, r0, #12582912	@ 0xc00000
 8000b5e:	4770      	bx	lr

08000b60 <__aeabi_fdiv>:
 8000b60:	f04f 0cff 	mov.w	ip, #255	@ 0xff
 8000b64:	ea1c 52d0 	ands.w	r2, ip, r0, lsr #23
 8000b68:	bf1e      	ittt	ne
 8000b6a:	ea1c 53d1 	andsne.w	r3, ip, r1, lsr #23
 8000b6e:	ea92 0f0c 	teqne	r2, ip
 8000b72:	ea93 0f0c 	teqne	r3, ip
 8000b76:	d069      	beq.n	8000c4c <__aeabi_fdiv+0xec>
 8000b78:	eba2 0203 	sub.w	r2, r2, r3
 8000b7c:	ea80 0c01 	eor.w	ip, r0, r1
 8000b80:	0249      	lsls	r1, r1, #9
 8000b82:	ea4f 2040 	mov.w	r0, r0, lsl #9
 8000b86:	d037      	beq.n	8000bf8 <__aeabi_fdiv+0x98>
 8000b88:	f04f 5380 	mov.w	r3, #268435456	@ 0x10000000
 8000b8c:	ea43 1111 	orr.w	r1, r3, r1, lsr #4
 8000b90:	ea43 1310 	orr.w	r3, r3, r0, lsr #4
 8000b94:	f00c 4000 	and.w	r0, ip, #2147483648	@ 0x80000000
 8000b98:	428b      	cmp	r3, r1
 8000b9a:	bf38      	it	cc
 8000b9c:	005b      	lslcc	r3, r3, #1
 8000b9e:	f142 027d 	adc.w	r2, r2, #125	@ 0x7d
 8000ba2:	f44f 0c00 	mov.w	ip, #8388608	@ 0x800000
 8000ba6:	428b      	cmp	r3, r1
 8000ba8:	bf24      	itt	cs
 8000baa:	1a5b      	subcs	r3, r3, r1
 8000bac:	ea40 000c 	orrcs.w	r0, r0, ip
 8000bb0:	ebb3 0f51 	cmp.w	r3, r1, lsr #1
 8000bb4:	bf24      	itt	cs
 8000bb6:	eba3 0351 	subcs.w	r3, r3, r1, lsr #1
 8000bba:	ea40 005c 	orrcs.w	r0, r0, ip, lsr #1
 8000bbe:	ebb3 0f91 	cmp.w	r3, r1, lsr #2
 8000bc2:	bf24      	itt	cs
 8000bc4:	eba3 0391 	subcs.w	r3, r3, r1, lsr #2
 8000bc8:	ea40 009c 	orrcs.w	r0, r0, ip, lsr #2
 8000bcc:	ebb3 0fd1 	cmp.w	r3, r1, lsr #3
 8000bd0:	bf24      	itt	cs
 8000bd2:	eba3 03d1 	subcs.w	r3, r3, r1, lsr #3
 8000bd6:	ea40 00dc 	orrcs.w	r0, r0, ip, lsr #3
 8000bda:	011b      	lsls	r3, r3, #4
 8000bdc:	bf18      	it	ne
 8000bde:	ea5f 1c1c 	movsne.w	ip, ip, lsr #4
 8000be2:	d1e0      	bne.n	8000ba6 <__aeabi_fdiv+0x46>
 8000be4:	2afd      	cmp	r2, #253	@ 0xfd
 8000be6:	f63f af50 	bhi.w	8000a8a <__aeabi_fmul+0x92>
 8000bea:	428b      	cmp	r3, r1
 8000bec:	eb40 50c2 	adc.w	r0, r0, r2, lsl #23
 8000bf0:	bf08      	it	eq
 8000bf2:	f020 0001 	biceq.w	r0, r0, #1
 8000bf6:	4770      	bx	lr
 8000bf8:	f00c 4c00 	and.w	ip, ip, #2147483648	@ 0x80000000
 8000bfc:	ea4c 2050 	orr.w	r0, ip, r0, lsr #9
 8000c00:	327f      	adds	r2, #127	@ 0x7f
 8000c02:	bfc2      	ittt	gt
 8000c04:	f1d2 03ff 	rsbsgt	r3, r2, #255	@ 0xff
 8000c08:	ea40 50c2 	orrgt.w	r0, r0, r2, lsl #23
 8000c0c:	4770      	bxgt	lr
 8000c0e:	f440 0000 	orr.w	r0, r0, #8388608	@ 0x800000
 8000c12:	f04f 0300 	mov.w	r3, #0
 8000c16:	3a01      	subs	r2, #1
 8000c18:	e737      	b.n	8000a8a <__aeabi_fmul+0x92>
 8000c1a:	f092 0f00 	teq	r2, #0
 8000c1e:	f000 4c00 	and.w	ip, r0, #2147483648	@ 0x80000000
 8000c22:	bf02      	ittt	eq
 8000c24:	0040      	lsleq	r0, r0, #1
 8000c26:	f410 0f00 	tsteq.w	r0, #8388608	@ 0x800000
 8000c2a:	3a01      	subeq	r2, #1
 8000c2c:	d0f9      	beq.n	8000c22 <__aeabi_fdiv+0xc2>
 8000c2e:	ea40 000c 	orr.w	r0, r0, ip
 8000c32:	f093 0f00 	teq	r3, #0
 8000c36:	f001 4c00 	and.w	ip, r1, #2147483648	@ 0x80000000
 8000c3a:	bf02      	ittt	eq
 8000c3c:	0049      	lsleq	r1, r1, #1
 8000c3e:	f411 0f00 	tsteq.w	r1, #8388608	@ 0x800000
 8000c42:	3b01      	subeq	r3, #1
 8000c44:	d0f9      	beq.n	8000c3a <__aeabi_fdiv+0xda>
 8000c46:	ea41 010c 	orr.w	r1, r1, ip
 8000c4a:	e795      	b.n	8000b78 <__aeabi_fdiv+0x18>
 8000c4c:	ea0c 53d1 	and.w	r3, ip, r1, lsr #23
 8000c50:	ea92 0f0c 	teq	r2, ip
 8000c54:	d108      	bne.n	8000c68 <__aeabi_fdiv+0x108>
 8000c56:	0242      	lsls	r2, r0, #9
 8000c58:	f47f af7d 	bne.w	8000b56 <__aeabi_fmul+0x15e>
 8000c5c:	ea93 0f0c 	teq	r3, ip
 8000c60:	f47f af70 	bne.w	8000b44 <__aeabi_fmul+0x14c>
 8000c64:	4608      	mov	r0, r1
 8000c66:	e776      	b.n	8000b56 <__aeabi_fmul+0x15e>
 8000c68:	ea93 0f0c 	teq	r3, ip
 8000c6c:	d104      	bne.n	8000c78 <__aeabi_fdiv+0x118>
 8000c6e:	024b      	lsls	r3, r1, #9
 8000c70:	f43f af4c 	beq.w	8000b0c <__aeabi_fmul+0x114>
 8000c74:	4608      	mov	r0, r1
 8000c76:	e76e      	b.n	8000b56 <__aeabi_fmul+0x15e>
 8000c78:	f030 4c00 	bics.w	ip, r0, #2147483648	@ 0x80000000
 8000c7c:	bf18      	it	ne
 8000c7e:	f031 4c00 	bicsne.w	ip, r1, #2147483648	@ 0x80000000
 8000c82:	d1ca      	bne.n	8000c1a <__aeabi_fdiv+0xba>
 8000c84:	f030 4200 	bics.w	r2, r0, #2147483648	@ 0x80000000
 8000c88:	f47f af5c 	bne.w	8000b44 <__aeabi_fmul+0x14c>
 8000c8c:	f031 4300 	bics.w	r3, r1, #2147483648	@ 0x80000000
 8000c90:	f47f af3c 	bne.w	8000b0c <__aeabi_fmul+0x114>
 8000c94:	e75f      	b.n	8000b56 <__aeabi_fmul+0x15e>
 8000c96:	bf00      	nop

08000c98 <__gesf2>:
 8000c98:	f04f 3cff 	mov.w	ip, #4294967295
 8000c9c:	e006      	b.n	8000cac <__cmpsf2+0x4>
 8000c9e:	bf00      	nop

08000ca0 <__lesf2>:
 8000ca0:	f04f 0c01 	mov.w	ip, #1
 8000ca4:	e002      	b.n	8000cac <__cmpsf2+0x4>
 8000ca6:	bf00      	nop

08000ca8 <__cmpsf2>:
 8000ca8:	f04f 0c01 	mov.w	ip, #1
 8000cac:	f84d cd04 	str.w	ip, [sp, #-4]!
 8000cb0:	ea4f 0240 	mov.w	r2, r0, lsl #1
 8000cb4:	ea4f 0341 	mov.w	r3, r1, lsl #1
 8000cb8:	ea7f 6c22 	mvns.w	ip, r2, asr #24
 8000cbc:	bf18      	it	ne
 8000cbe:	ea7f 6c23 	mvnsne.w	ip, r3, asr #24
 8000cc2:	d011      	beq.n	8000ce8 <__cmpsf2+0x40>
 8000cc4:	b001      	add	sp, #4
 8000cc6:	ea52 0c53 	orrs.w	ip, r2, r3, lsr #1
 8000cca:	bf18      	it	ne
 8000ccc:	ea90 0f01 	teqne	r0, r1
 8000cd0:	bf58      	it	pl
 8000cd2:	ebb2 0003 	subspl.w	r0, r2, r3
 8000cd6:	bf88      	it	hi
 8000cd8:	17c8      	asrhi	r0, r1, #31
 8000cda:	bf38      	it	cc
 8000cdc:	ea6f 70e1 	mvncc.w	r0, r1, asr #31
 8000ce0:	bf18      	it	ne
 8000ce2:	f040 0001 	orrne.w	r0, r0, #1
 8000ce6:	4770      	bx	lr
 8000ce8:	ea7f 6c22 	mvns.w	ip, r2, asr #24
 8000cec:	d102      	bne.n	8000cf4 <__cmpsf2+0x4c>
 8000cee:	ea5f 2c40 	movs.w	ip, r0, lsl #9
 8000cf2:	d105      	bne.n	8000d00 <__cmpsf2+0x58>
 8000cf4:	ea7f 6c23 	mvns.w	ip, r3, asr #24
 8000cf8:	d1e4      	bne.n	8000cc4 <__cmpsf2+0x1c>
 8000cfa:	ea5f 2c41 	movs.w	ip, r1, lsl #9
 8000cfe:	d0e1      	beq.n	8000cc4 <__cmpsf2+0x1c>
 8000d00:	f85d 0b04 	ldr.w	r0, [sp], #4
 8000d04:	4770      	bx	lr
 8000d06:	bf00      	nop

08000d08 <__aeabi_cfrcmple>:
 8000d08:	4684      	mov	ip, r0
 8000d0a:	4608      	mov	r0, r1
 8000d0c:	4661      	mov	r1, ip
 8000d0e:	e7ff      	b.n	8000d10 <__aeabi_cfcmpeq>

08000d10 <__aeabi_cfcmpeq>:
 8000d10:	b50f      	push	{r0, r1, r2, r3, lr}
 8000d12:	f7ff ffc9 	bl	8000ca8 <__cmpsf2>
 8000d16:	2800      	cmp	r0, #0
 8000d18:	bf48      	it	mi
 8000d1a:	f110 0f00 	cmnmi.w	r0, #0
 8000d1e:	bd0f      	pop	{r0, r1, r2, r3, pc}

08000d20 <__aeabi_fcmpeq>:
 8000d20:	f84d ed08 	str.w	lr, [sp, #-8]!
 8000d24:	f7ff fff4 	bl	8000d10 <__aeabi_cfcmpeq>
 8000d28:	bf0c      	ite	eq
 8000d2a:	2001      	moveq	r0, #1
 8000d2c:	2000      	movne	r0, #0
 8000d2e:	f85d fb08 	ldr.w	pc, [sp], #8
 8000d32:	bf00      	nop

08000d34 <__aeabi_fcmplt>:
 8000d34:	f84d ed08 	str.w	lr, [sp, #-8]!
 8000d38:	f7ff ffea 	bl	8000d10 <__aeabi_cfcmpeq>
 8000d3c:	bf34      	ite	cc
 8000d3e:	2001      	movcc	r0, #1
 8000d40:	2000      	movcs	r0, #0
 8000d42:	f85d fb08 	ldr.w	pc, [sp], #8
 8000d46:	bf00      	nop

08000d48 <__aeabi_fcmple>:
 8000d48:	f84d ed08 	str.w	lr, [sp, #-8]!
 8000d4c:	f7ff ffe0 	bl	8000d10 <__aeabi_cfcmpeq>
 8000d50:	bf94      	ite	ls
 8000d52:	2001      	movls	r0, #1
 8000d54:	2000      	movhi	r0, #0
 8000d56:	f85d fb08 	ldr.w	pc, [sp], #8
 8000d5a:	bf00      	nop

08000d5c <__aeabi_fcmpge>:
 8000d5c:	f84d ed08 	str.w	lr, [sp, #-8]!
 8000d60:	f7ff ffd2 	bl	8000d08 <__aeabi_cfrcmple>
 8000d64:	bf94      	ite	ls
 8000d66:	2001      	movls	r0, #1
 8000d68:	2000      	movhi	r0, #0
 8000d6a:	f85d fb08 	ldr.w	pc, [sp], #8
 8000d6e:	bf00      	nop

08000d70 <__aeabi_fcmpgt>:
 8000d70:	f84d ed08 	str.w	lr, [sp, #-8]!
 8000d74:	f7ff ffc8 	bl	8000d08 <__aeabi_cfrcmple>
 8000d78:	bf34      	ite	cc
 8000d7a:	2001      	movcc	r0, #1
 8000d7c:	2000      	movcs	r0, #0
 8000d7e:	f85d fb08 	ldr.w	pc, [sp], #8
 8000d82:	bf00      	nop

08000d84 <__aeabi_f2uiz>:
 8000d84:	0042      	lsls	r2, r0, #1
 8000d86:	d20e      	bcs.n	8000da6 <__aeabi_f2uiz+0x22>
 8000d88:	f1b2 4ffe 	cmp.w	r2, #2130706432	@ 0x7f000000
 8000d8c:	d30b      	bcc.n	8000da6 <__aeabi_f2uiz+0x22>
 8000d8e:	f04f 039e 	mov.w	r3, #158	@ 0x9e
 8000d92:	ebb3 6212 	subs.w	r2, r3, r2, lsr #24
 8000d96:	d409      	bmi.n	8000dac <__aeabi_f2uiz+0x28>
 8000d98:	ea4f 2300 	mov.w	r3, r0, lsl #8
 8000d9c:	f043 4300 	orr.w	r3, r3, #2147483648	@ 0x80000000
 8000da0:	fa23 f002 	lsr.w	r0, r3, r2
 8000da4:	4770      	bx	lr
 8000da6:	f04f 0000 	mov.w	r0, #0
 8000daa:	4770      	bx	lr
 8000dac:	f112 0f61 	cmn.w	r2, #97	@ 0x61
 8000db0:	d101      	bne.n	8000db6 <__aeabi_f2uiz+0x32>
 8000db2:	0242      	lsls	r2, r0, #9
 8000db4:	d102      	bne.n	8000dbc <__aeabi_f2uiz+0x38>
 8000db6:	f04f 30ff 	mov.w	r0, #4294967295
 8000dba:	4770      	bx	lr
 8000dbc:	f04f 0000 	mov.w	r0, #0
 8000dc0:	4770      	bx	lr
 8000dc2:	bf00      	nop

08000dc4 <keyboardActivity>:
volatile uint16_t fingers_thresholds[ADC_CHANNELS_COUNT] = {1000, 1000, 1000,1000, 1000};
float angleP = 0, angleR = 0, gx_offset = 0, gy_offset = 0;
const float rad_to_deg = 57.2957795f;
const uint32_t t_ms = 6;

void keyboardActivity(){
 8000dc4:	b5b0      	push	{r4, r5, r7, lr}
 8000dc6:	b086      	sub	sp, #24
 8000dc8:	af04      	add	r7, sp, #16
	static uint32_t last_send_time = 0,
					last_gradient = 0;
	static const uint8_t hue_min = 200, hue_max = 240;
	if(millis() - last_gradient >= 10){
 8000dca:	f001 ff5f 	bl	8002c8c <millis>
 8000dce:	4602      	mov	r2, r0
 8000dd0:	4b24      	ldr	r3, [pc, #144]	@ (8000e64 <keyboardActivity+0xa0>)
 8000dd2:	681b      	ldr	r3, [r3, #0]
 8000dd4:	1ad3      	subs	r3, r2, r3
 8000dd6:	2b09      	cmp	r3, #9
 8000dd8:	d92b      	bls.n	8000e32 <keyboardActivity+0x6e>
		Color new_color = getStateColor(hue_min, hue_max);
 8000dda:	4b23      	ldr	r3, [pc, #140]	@ (8000e68 <keyboardActivity+0xa4>)
 8000ddc:	781b      	ldrb	r3, [r3, #0]
 8000dde:	4a23      	ldr	r2, [pc, #140]	@ (8000e6c <keyboardActivity+0xa8>)
 8000de0:	7812      	ldrb	r2, [r2, #0]
 8000de2:	4611      	mov	r1, r2
 8000de4:	4618      	mov	r0, r3
 8000de6:	f000 fd6b 	bl	80018c0 <getStateColor>
 8000dea:	4603      	mov	r3, r0
 8000dec:	461a      	mov	r2, r3
 8000dee:	713a      	strb	r2, [r7, #4]
 8000df0:	f3c3 2207 	ubfx	r2, r3, #8, #8
 8000df4:	717a      	strb	r2, [r7, #5]
 8000df6:	f3c3 4307 	ubfx	r3, r3, #16, #8
 8000dfa:	71bb      	strb	r3, [r7, #6]
		setColor(RGB_R, RGB_G, RGB_B, new_color);
 8000dfc:	4d1c      	ldr	r5, [pc, #112]	@ (8000e70 <keyboardActivity+0xac>)
 8000dfe:	4c1d      	ldr	r4, [pc, #116]	@ (8000e74 <keyboardActivity+0xb0>)
 8000e00:	ab02      	add	r3, sp, #8
 8000e02:	1d3a      	adds	r2, r7, #4
 8000e04:	6812      	ldr	r2, [r2, #0]
 8000e06:	4611      	mov	r1, r2
 8000e08:	8019      	strh	r1, [r3, #0]
 8000e0a:	3302      	adds	r3, #2
 8000e0c:	0c12      	lsrs	r2, r2, #16
 8000e0e:	701a      	strb	r2, [r3, #0]
 8000e10:	4a19      	ldr	r2, [pc, #100]	@ (8000e78 <keyboardActivity+0xb4>)
 8000e12:	466b      	mov	r3, sp
 8000e14:	e892 0003 	ldmia.w	r2, {r0, r1}
 8000e18:	e883 0003 	stmia.w	r3, {r0, r1}
 8000e1c:	e895 000c 	ldmia.w	r5, {r2, r3}
 8000e20:	e894 0003 	ldmia.w	r4, {r0, r1}
 8000e24:	f000 fd02 	bl	800182c <setColor>
		last_gradient = millis();
 8000e28:	f001 ff30 	bl	8002c8c <millis>
 8000e2c:	4603      	mov	r3, r0
 8000e2e:	4a0d      	ldr	r2, [pc, #52]	@ (8000e64 <keyboardActivity+0xa0>)
 8000e30:	6013      	str	r3, [r2, #0]
	}
	if(millis() - last_send_time >= SEND_INTERVAL_MS){
 8000e32:	f001 ff2b 	bl	8002c8c <millis>
 8000e36:	4602      	mov	r2, r0
 8000e38:	4b10      	ldr	r3, [pc, #64]	@ (8000e7c <keyboardActivity+0xb8>)
 8000e3a:	681b      	ldr	r3, [r3, #0]
 8000e3c:	1ad3      	subs	r3, r2, r3
 8000e3e:	2bf9      	cmp	r3, #249	@ 0xf9
 8000e40:	d90c      	bls.n	8000e5c <keyboardActivity+0x98>
		uint8_t fingerStates = getFingerMask();
 8000e42:	f000 fa21 	bl	8001288 <getFingerMask>
 8000e46:	4603      	mov	r3, r0
 8000e48:	71fb      	strb	r3, [r7, #7]
		softUartPutChar(fingerStates);
 8000e4a:	79fb      	ldrb	r3, [r7, #7]
 8000e4c:	4618      	mov	r0, r3
 8000e4e:	f001 fe27 	bl	8002aa0 <softUartPutChar>
		last_send_time = millis();
 8000e52:	f001 ff1b 	bl	8002c8c <millis>
 8000e56:	4603      	mov	r3, r0
 8000e58:	4a08      	ldr	r2, [pc, #32]	@ (8000e7c <keyboardActivity+0xb8>)
 8000e5a:	6013      	str	r3, [r2, #0]
	}
}
 8000e5c:	bf00      	nop
 8000e5e:	3708      	adds	r7, #8
 8000e60:	46bd      	mov	sp, r7
 8000e62:	bdb0      	pop	{r4, r5, r7, pc}
 8000e64:	20000170 	.word	0x20000170
 8000e68:	0800355c 	.word	0x0800355c
 8000e6c:	0800355d 	.word	0x0800355d
 8000e70:	2000004c 	.word	0x2000004c
 8000e74:	20000044 	.word	0x20000044
 8000e78:	20000054 	.word	0x20000054
 8000e7c:	20000174 	.word	0x20000174

08000e80 <carControllerActivity>:


void carControllerActivity(){
 8000e80:	b5b0      	push	{r4, r5, r7, lr}
 8000e82:	b092      	sub	sp, #72	@ 0x48
 8000e84:	af04      	add	r7, sp, #16
	static uint32_t last_gradient = 0,
					last_send_time = 0;
	static const uint8_t hue_min = 5, hue_max = 30;

	if(millis() - last_gradient >= 10){
 8000e86:	f001 ff01 	bl	8002c8c <millis>
 8000e8a:	4602      	mov	r2, r0
 8000e8c:	4b9a      	ldr	r3, [pc, #616]	@ (80010f8 <carControllerActivity+0x278>)
 8000e8e:	681b      	ldr	r3, [r3, #0]
 8000e90:	1ad3      	subs	r3, r2, r3
 8000e92:	2b09      	cmp	r3, #9
 8000e94:	d92c      	bls.n	8000ef0 <carControllerActivity+0x70>
			Color new_color = getStateColor(hue_min, hue_max);
 8000e96:	4b99      	ldr	r3, [pc, #612]	@ (80010fc <carControllerActivity+0x27c>)
 8000e98:	781b      	ldrb	r3, [r3, #0]
 8000e9a:	4a99      	ldr	r2, [pc, #612]	@ (8001100 <carControllerActivity+0x280>)
 8000e9c:	7812      	ldrb	r2, [r2, #0]
 8000e9e:	4611      	mov	r1, r2
 8000ea0:	4618      	mov	r0, r3
 8000ea2:	f000 fd0d 	bl	80018c0 <getStateColor>
 8000ea6:	4603      	mov	r3, r0
 8000ea8:	461a      	mov	r2, r3
 8000eaa:	753a      	strb	r2, [r7, #20]
 8000eac:	f3c3 2207 	ubfx	r2, r3, #8, #8
 8000eb0:	757a      	strb	r2, [r7, #21]
 8000eb2:	f3c3 4307 	ubfx	r3, r3, #16, #8
 8000eb6:	75bb      	strb	r3, [r7, #22]
			setColor(RGB_R, RGB_G, RGB_B, new_color);
 8000eb8:	4d92      	ldr	r5, [pc, #584]	@ (8001104 <carControllerActivity+0x284>)
 8000eba:	4c93      	ldr	r4, [pc, #588]	@ (8001108 <carControllerActivity+0x288>)
 8000ebc:	ab02      	add	r3, sp, #8
 8000ebe:	f107 0214 	add.w	r2, r7, #20
 8000ec2:	6812      	ldr	r2, [r2, #0]
 8000ec4:	4611      	mov	r1, r2
 8000ec6:	8019      	strh	r1, [r3, #0]
 8000ec8:	3302      	adds	r3, #2
 8000eca:	0c12      	lsrs	r2, r2, #16
 8000ecc:	701a      	strb	r2, [r3, #0]
 8000ece:	4a8f      	ldr	r2, [pc, #572]	@ (800110c <carControllerActivity+0x28c>)
 8000ed0:	466b      	mov	r3, sp
 8000ed2:	e892 0003 	ldmia.w	r2, {r0, r1}
 8000ed6:	e883 0003 	stmia.w	r3, {r0, r1}
 8000eda:	e895 000c 	ldmia.w	r5, {r2, r3}
 8000ede:	e894 0003 	ldmia.w	r4, {r0, r1}
 8000ee2:	f000 fca3 	bl	800182c <setColor>
			last_gradient = millis();
 8000ee6:	f001 fed1 	bl	8002c8c <millis>
 8000eea:	4603      	mov	r3, r0
 8000eec:	4a82      	ldr	r2, [pc, #520]	@ (80010f8 <carControllerActivity+0x278>)
 8000eee:	6013      	str	r3, [r2, #0]
	}
	//  mpu
	if(millis() - last_send_time >= t_ms){
 8000ef0:	f001 fecc 	bl	8002c8c <millis>
 8000ef4:	4602      	mov	r2, r0
 8000ef6:	4b86      	ldr	r3, [pc, #536]	@ (8001110 <carControllerActivity+0x290>)
 8000ef8:	681b      	ldr	r3, [r3, #0]
 8000efa:	1ad3      	subs	r3, r2, r3
 8000efc:	2206      	movs	r2, #6
 8000efe:	4293      	cmp	r3, r2
 8000f00:	f0c0 81ae 	bcc.w	8001260 <carControllerActivity+0x3e0>
		static uint32_t prev_time = 0;
		uint32_t current_time = millis();
 8000f04:	f001 fec2 	bl	8002c8c <millis>
 8000f08:	62b8      	str	r0, [r7, #40]	@ 0x28
		float real_dt = (current_time - prev_time) / 1000.0f;
 8000f0a:	4b82      	ldr	r3, [pc, #520]	@ (8001114 <carControllerActivity+0x294>)
 8000f0c:	681b      	ldr	r3, [r3, #0]
 8000f0e:	6aba      	ldr	r2, [r7, #40]	@ 0x28
 8000f10:	1ad3      	subs	r3, r2, r3
 8000f12:	4618      	mov	r0, r3
 8000f14:	f7ff fd18 	bl	8000948 <__aeabi_ui2f>
 8000f18:	4603      	mov	r3, r0
 8000f1a:	497f      	ldr	r1, [pc, #508]	@ (8001118 <carControllerActivity+0x298>)
 8000f1c:	4618      	mov	r0, r3
 8000f1e:	f7ff fe1f 	bl	8000b60 <__aeabi_fdiv>
 8000f22:	4603      	mov	r3, r0
 8000f24:	637b      	str	r3, [r7, #52]	@ 0x34
		prev_time = current_time;
 8000f26:	4a7b      	ldr	r2, [pc, #492]	@ (8001114 <carControllerActivity+0x294>)
 8000f28:	6abb      	ldr	r3, [r7, #40]	@ 0x28
 8000f2a:	6013      	str	r3, [r2, #0]
		if(real_dt > 0.1f) real_dt = 0.006f;
 8000f2c:	497b      	ldr	r1, [pc, #492]	@ (800111c <carControllerActivity+0x29c>)
 8000f2e:	6b78      	ldr	r0, [r7, #52]	@ 0x34
 8000f30:	f7ff ff1e 	bl	8000d70 <__aeabi_fcmpgt>
 8000f34:	4603      	mov	r3, r0
 8000f36:	2b00      	cmp	r3, #0
 8000f38:	d001      	beq.n	8000f3e <carControllerActivity+0xbe>
 8000f3a:	4b79      	ldr	r3, [pc, #484]	@ (8001120 <carControllerActivity+0x2a0>)
 8000f3c:	637b      	str	r3, [r7, #52]	@ 0x34

		uint8_t raw[14] = {0};
 8000f3e:	1d3b      	adds	r3, r7, #4
 8000f40:	2200      	movs	r2, #0
 8000f42:	601a      	str	r2, [r3, #0]
 8000f44:	605a      	str	r2, [r3, #4]
 8000f46:	609a      	str	r2, [r3, #8]
 8000f48:	819a      	strh	r2, [r3, #12]

		I2C_Read_Burst(I2C1, MPU_ADDR, REG_ACCEL_XOUT_H, raw, 14);
 8000f4a:	4b76      	ldr	r3, [pc, #472]	@ (8001124 <carControllerActivity+0x2a4>)
 8000f4c:	7819      	ldrb	r1, [r3, #0]
 8000f4e:	4b76      	ldr	r3, [pc, #472]	@ (8001128 <carControllerActivity+0x2a8>)
 8000f50:	781a      	ldrb	r2, [r3, #0]
 8000f52:	1d3b      	adds	r3, r7, #4
 8000f54:	200e      	movs	r0, #14
 8000f56:	9000      	str	r0, [sp, #0]
 8000f58:	4874      	ldr	r0, [pc, #464]	@ (800112c <carControllerActivity+0x2ac>)
 8000f5a:	f001 fa3a 	bl	80023d2 <I2C_Read_Burst>
		mpu_imu.ax = (int16_t)(raw[0] << 8 | raw[1]);
 8000f5e:	793b      	ldrb	r3, [r7, #4]
 8000f60:	b21b      	sxth	r3, r3
 8000f62:	021b      	lsls	r3, r3, #8
 8000f64:	b21a      	sxth	r2, r3
 8000f66:	797b      	ldrb	r3, [r7, #5]
 8000f68:	b21b      	sxth	r3, r3
 8000f6a:	4313      	orrs	r3, r2
 8000f6c:	b21a      	sxth	r2, r3
 8000f6e:	4b70      	ldr	r3, [pc, #448]	@ (8001130 <carControllerActivity+0x2b0>)
 8000f70:	801a      	strh	r2, [r3, #0]
		mpu_imu.ay = (int16_t)(raw[2] << 8 | raw[3]);
 8000f72:	79bb      	ldrb	r3, [r7, #6]
 8000f74:	b21b      	sxth	r3, r3
 8000f76:	021b      	lsls	r3, r3, #8
 8000f78:	b21a      	sxth	r2, r3
 8000f7a:	79fb      	ldrb	r3, [r7, #7]
 8000f7c:	b21b      	sxth	r3, r3
 8000f7e:	4313      	orrs	r3, r2
 8000f80:	b21a      	sxth	r2, r3
 8000f82:	4b6b      	ldr	r3, [pc, #428]	@ (8001130 <carControllerActivity+0x2b0>)
 8000f84:	805a      	strh	r2, [r3, #2]
		mpu_imu.az = (int16_t)(raw[4] << 8 | raw[5]);
 8000f86:	7a3b      	ldrb	r3, [r7, #8]
 8000f88:	b21b      	sxth	r3, r3
 8000f8a:	021b      	lsls	r3, r3, #8
 8000f8c:	b21a      	sxth	r2, r3
 8000f8e:	7a7b      	ldrb	r3, [r7, #9]
 8000f90:	b21b      	sxth	r3, r3
 8000f92:	4313      	orrs	r3, r2
 8000f94:	b21a      	sxth	r2, r3
 8000f96:	4b66      	ldr	r3, [pc, #408]	@ (8001130 <carControllerActivity+0x2b0>)
 8000f98:	809a      	strh	r2, [r3, #4]

		mpu_imu.gx = (int16_t)(raw[8] << 8 | raw[9]);
 8000f9a:	7b3b      	ldrb	r3, [r7, #12]
 8000f9c:	b21b      	sxth	r3, r3
 8000f9e:	021b      	lsls	r3, r3, #8
 8000fa0:	b21a      	sxth	r2, r3
 8000fa2:	7b7b      	ldrb	r3, [r7, #13]
 8000fa4:	b21b      	sxth	r3, r3
 8000fa6:	4313      	orrs	r3, r2
 8000fa8:	b21a      	sxth	r2, r3
 8000faa:	4b61      	ldr	r3, [pc, #388]	@ (8001130 <carControllerActivity+0x2b0>)
 8000fac:	80da      	strh	r2, [r3, #6]
		mpu_imu.gy = (int16_t)(raw[10] << 8 | raw[11]);
 8000fae:	7bbb      	ldrb	r3, [r7, #14]
 8000fb0:	b21b      	sxth	r3, r3
 8000fb2:	021b      	lsls	r3, r3, #8
 8000fb4:	b21a      	sxth	r2, r3
 8000fb6:	7bfb      	ldrb	r3, [r7, #15]
 8000fb8:	b21b      	sxth	r3, r3
 8000fba:	4313      	orrs	r3, r2
 8000fbc:	b21a      	sxth	r2, r3
 8000fbe:	4b5c      	ldr	r3, [pc, #368]	@ (8001130 <carControllerActivity+0x2b0>)
 8000fc0:	811a      	strh	r2, [r3, #8]
		mpu_imu.gz = (int16_t)(raw[12] << 8 | raw[13]);
 8000fc2:	7c3b      	ldrb	r3, [r7, #16]
 8000fc4:	b21b      	sxth	r3, r3
 8000fc6:	021b      	lsls	r3, r3, #8
 8000fc8:	b21a      	sxth	r2, r3
 8000fca:	7c7b      	ldrb	r3, [r7, #17]
 8000fcc:	b21b      	sxth	r3, r3
 8000fce:	4313      	orrs	r3, r2
 8000fd0:	b21a      	sxth	r2, r3
 8000fd2:	4b57      	ldr	r3, [pc, #348]	@ (8001130 <carControllerActivity+0x2b0>)
 8000fd4:	815a      	strh	r2, [r3, #10]

		float pitchAcc = atan2f((float)mpu_imu.ax, (float)mpu_imu.az) * rad_to_deg;//   , 
 8000fd6:	4b56      	ldr	r3, [pc, #344]	@ (8001130 <carControllerActivity+0x2b0>)
 8000fd8:	f9b3 3000 	ldrsh.w	r3, [r3]
 8000fdc:	4618      	mov	r0, r3
 8000fde:	f7ff fcb7 	bl	8000950 <__aeabi_i2f>
 8000fe2:	4604      	mov	r4, r0
 8000fe4:	4b52      	ldr	r3, [pc, #328]	@ (8001130 <carControllerActivity+0x2b0>)
 8000fe6:	f9b3 3004 	ldrsh.w	r3, [r3, #4]
 8000fea:	4618      	mov	r0, r3
 8000fec:	f7ff fcb0 	bl	8000950 <__aeabi_i2f>
 8000ff0:	4603      	mov	r3, r0
 8000ff2:	4619      	mov	r1, r3
 8000ff4:	4620      	mov	r0, r4
 8000ff6:	f002 f8f9 	bl	80031ec <atan2f>
 8000ffa:	4603      	mov	r3, r0
 8000ffc:	4a4d      	ldr	r2, [pc, #308]	@ (8001134 <carControllerActivity+0x2b4>)
 8000ffe:	4611      	mov	r1, r2
 8001000:	4618      	mov	r0, r3
 8001002:	f7ff fcf9 	bl	80009f8 <__aeabi_fmul>
 8001006:	4603      	mov	r3, r0
 8001008:	627b      	str	r3, [r7, #36]	@ 0x24

		float rollAcc = atan2f((float)mpu_imu.ay, (float)mpu_imu.az) * rad_to_deg;
 800100a:	4b49      	ldr	r3, [pc, #292]	@ (8001130 <carControllerActivity+0x2b0>)
 800100c:	f9b3 3002 	ldrsh.w	r3, [r3, #2]
 8001010:	4618      	mov	r0, r3
 8001012:	f7ff fc9d 	bl	8000950 <__aeabi_i2f>
 8001016:	4604      	mov	r4, r0
 8001018:	4b45      	ldr	r3, [pc, #276]	@ (8001130 <carControllerActivity+0x2b0>)
 800101a:	f9b3 3004 	ldrsh.w	r3, [r3, #4]
 800101e:	4618      	mov	r0, r3
 8001020:	f7ff fc96 	bl	8000950 <__aeabi_i2f>
 8001024:	4603      	mov	r3, r0
 8001026:	4619      	mov	r1, r3
 8001028:	4620      	mov	r0, r4
 800102a:	f002 f8df 	bl	80031ec <atan2f>
 800102e:	4603      	mov	r3, r0
 8001030:	4a40      	ldr	r2, [pc, #256]	@ (8001134 <carControllerActivity+0x2b4>)
 8001032:	4611      	mov	r1, r2
 8001034:	4618      	mov	r0, r3
 8001036:	f7ff fcdf 	bl	80009f8 <__aeabi_fmul>
 800103a:	4603      	mov	r3, r0
 800103c:	623b      	str	r3, [r7, #32]

		float gyroXrate = (float)(mpu_imu.gx - gx_offset)/ 131.0;
 800103e:	4b3c      	ldr	r3, [pc, #240]	@ (8001130 <carControllerActivity+0x2b0>)
 8001040:	f9b3 3006 	ldrsh.w	r3, [r3, #6]
 8001044:	4618      	mov	r0, r3
 8001046:	f7ff fc83 	bl	8000950 <__aeabi_i2f>
 800104a:	4602      	mov	r2, r0
 800104c:	4b3a      	ldr	r3, [pc, #232]	@ (8001138 <carControllerActivity+0x2b8>)
 800104e:	681b      	ldr	r3, [r3, #0]
 8001050:	4619      	mov	r1, r3
 8001052:	4610      	mov	r0, r2
 8001054:	f7ff fbc6 	bl	80007e4 <__aeabi_fsub>
 8001058:	4603      	mov	r3, r0
 800105a:	4938      	ldr	r1, [pc, #224]	@ (800113c <carControllerActivity+0x2bc>)
 800105c:	4618      	mov	r0, r3
 800105e:	f7ff fd7f 	bl	8000b60 <__aeabi_fdiv>
 8001062:	4603      	mov	r3, r0
 8001064:	61fb      	str	r3, [r7, #28]
	//	float gyroYrate = (float)(mpu_imu.gy - gy_offset)/ 131.0;

		angleP = 0.96 * (angleP + gyroXrate * real_dt) + 0.04 * pitchAcc;
 8001066:	6b79      	ldr	r1, [r7, #52]	@ 0x34
 8001068:	69f8      	ldr	r0, [r7, #28]
 800106a:	f7ff fcc5 	bl	80009f8 <__aeabi_fmul>
 800106e:	4603      	mov	r3, r0
 8001070:	461a      	mov	r2, r3
 8001072:	4b33      	ldr	r3, [pc, #204]	@ (8001140 <carControllerActivity+0x2c0>)
 8001074:	681b      	ldr	r3, [r3, #0]
 8001076:	4619      	mov	r1, r3
 8001078:	4610      	mov	r0, r2
 800107a:	f7ff fbb5 	bl	80007e8 <__addsf3>
 800107e:	4603      	mov	r3, r0
 8001080:	4618      	mov	r0, r3
 8001082:	f7ff fb03 	bl	800068c <__aeabi_f2d>
 8001086:	a318      	add	r3, pc, #96	@ (adr r3, 80010e8 <carControllerActivity+0x268>)
 8001088:	e9d3 2300 	ldrd	r2, r3, [r3]
 800108c:	f7ff f870 	bl	8000170 <__aeabi_dmul>
 8001090:	4602      	mov	r2, r0
 8001092:	460b      	mov	r3, r1
 8001094:	4614      	mov	r4, r2
 8001096:	461d      	mov	r5, r3
 8001098:	6a78      	ldr	r0, [r7, #36]	@ 0x24
 800109a:	f7ff faf7 	bl	800068c <__aeabi_f2d>
 800109e:	a314      	add	r3, pc, #80	@ (adr r3, 80010f0 <carControllerActivity+0x270>)
 80010a0:	e9d3 2300 	ldrd	r2, r3, [r3]
 80010a4:	f7ff f864 	bl	8000170 <__aeabi_dmul>
 80010a8:	4602      	mov	r2, r0
 80010aa:	460b      	mov	r3, r1
 80010ac:	4620      	mov	r0, r4
 80010ae:	4629      	mov	r1, r5
 80010b0:	f7ff f98e 	bl	80003d0 <__adddf3>
 80010b4:	4602      	mov	r2, r0
 80010b6:	460b      	mov	r3, r1
 80010b8:	4610      	mov	r0, r2
 80010ba:	4619      	mov	r1, r3
 80010bc:	f7ff fb3e 	bl	800073c <__aeabi_d2f>
 80010c0:	4603      	mov	r3, r0
 80010c2:	4a1f      	ldr	r2, [pc, #124]	@ (8001140 <carControllerActivity+0x2c0>)
 80010c4:	6013      	str	r3, [r2, #0]
		//angleR = 0.95 * (angleR + gyroYrate * real_dt) + 0.05 * rollAcc;
		angleR = rollAcc;
 80010c6:	4a1f      	ldr	r2, [pc, #124]	@ (8001144 <carControllerActivity+0x2c4>)
 80010c8:	6a3b      	ldr	r3, [r7, #32]
 80010ca:	6013      	str	r3, [r2, #0]
		uint8_t finger_states = getFingerMask();
 80010cc:	f000 f8dc 	bl	8001288 <getFingerMask>
 80010d0:	4603      	mov	r3, r0
 80010d2:	76fb      	strb	r3, [r7, #27]
		int8_t speed = 0;
 80010d4:	2300      	movs	r3, #0
 80010d6:	f887 3033 	strb.w	r3, [r7, #51]	@ 0x33
		for(uint8_t i = 0; i<5; i++){
 80010da:	2300      	movs	r3, #0
 80010dc:	f887 3032 	strb.w	r3, [r7, #50]	@ 0x32
 80010e0:	e047      	b.n	8001172 <carControllerActivity+0x2f2>
 80010e2:	bf00      	nop
 80010e4:	f3af 8000 	nop.w
 80010e8:	eb851eb8 	.word	0xeb851eb8
 80010ec:	3feeb851 	.word	0x3feeb851
 80010f0:	47ae147b 	.word	0x47ae147b
 80010f4:	3fa47ae1 	.word	0x3fa47ae1
 80010f8:	20000178 	.word	0x20000178
 80010fc:	0800355e 	.word	0x0800355e
 8001100:	0800355f 	.word	0x0800355f
 8001104:	2000004c 	.word	0x2000004c
 8001108:	20000044 	.word	0x20000044
 800110c:	20000054 	.word	0x20000054
 8001110:	2000017c 	.word	0x2000017c
 8001114:	20000180 	.word	0x20000180
 8001118:	447a0000 	.word	0x447a0000
 800111c:	3dcccccd 	.word	0x3dcccccd
 8001120:	3bc49ba6 	.word	0x3bc49ba6
 8001124:	08003568 	.word	0x08003568
 8001128:	0800356a 	.word	0x0800356a
 800112c:	40005400 	.word	0x40005400
 8001130:	20000198 	.word	0x20000198
 8001134:	42652ee1 	.word	0x42652ee1
 8001138:	20000168 	.word	0x20000168
 800113c:	43030000 	.word	0x43030000
 8001140:	20000160 	.word	0x20000160
 8001144:	20000164 	.word	0x20000164
			if(!(finger_states & (1 << i))){
 8001148:	7efa      	ldrb	r2, [r7, #27]
 800114a:	f897 3032 	ldrb.w	r3, [r7, #50]	@ 0x32
 800114e:	fa42 f303 	asr.w	r3, r2, r3
 8001152:	f003 0301 	and.w	r3, r3, #1
 8001156:	2b00      	cmp	r3, #0
 8001158:	d106      	bne.n	8001168 <carControllerActivity+0x2e8>
				speed++;						//    
 800115a:	f997 3033 	ldrsb.w	r3, [r7, #51]	@ 0x33
 800115e:	b2db      	uxtb	r3, r3
 8001160:	3301      	adds	r3, #1
 8001162:	b2db      	uxtb	r3, r3
 8001164:	f887 3033 	strb.w	r3, [r7, #51]	@ 0x33
		for(uint8_t i = 0; i<5; i++){
 8001168:	f897 3032 	ldrb.w	r3, [r7, #50]	@ 0x32
 800116c:	3301      	adds	r3, #1
 800116e:	f887 3032 	strb.w	r3, [r7, #50]	@ 0x32
 8001172:	f897 3032 	ldrb.w	r3, [r7, #50]	@ 0x32
 8001176:	2b04      	cmp	r3, #4
 8001178:	d9e6      	bls.n	8001148 <carControllerActivity+0x2c8>
			}
		}
		speed *= 20;							//   - 20% ,     
 800117a:	f897 3033 	ldrb.w	r3, [r7, #51]	@ 0x33
 800117e:	461a      	mov	r2, r3
 8001180:	0092      	lsls	r2, r2, #2
 8001182:	4413      	add	r3, r2
 8001184:	009b      	lsls	r3, r3, #2
 8001186:	b2db      	uxtb	r3, r3
 8001188:	f887 3033 	strb.w	r3, [r7, #51]	@ 0x33

		float outR = angleR;
 800118c:	4b36      	ldr	r3, [pc, #216]	@ (8001268 <carControllerActivity+0x3e8>)
 800118e:	681b      	ldr	r3, [r3, #0]
 8001190:	62fb      	str	r3, [r7, #44]	@ 0x2c
		// 
		if(outR < 0) outR = -outR -90;
 8001192:	f04f 0100 	mov.w	r1, #0
 8001196:	6af8      	ldr	r0, [r7, #44]	@ 0x2c
 8001198:	f7ff fdcc 	bl	8000d34 <__aeabi_fcmplt>
 800119c:	4603      	mov	r3, r0
 800119e:	2b00      	cmp	r3, #0
 80011a0:	d009      	beq.n	80011b6 <carControllerActivity+0x336>
 80011a2:	6afb      	ldr	r3, [r7, #44]	@ 0x2c
 80011a4:	f083 4300 	eor.w	r3, r3, #2147483648	@ 0x80000000
 80011a8:	4930      	ldr	r1, [pc, #192]	@ (800126c <carControllerActivity+0x3ec>)
 80011aa:	4618      	mov	r0, r3
 80011ac:	f7ff fb1a 	bl	80007e4 <__aeabi_fsub>
 80011b0:	4603      	mov	r3, r0
 80011b2:	62fb      	str	r3, [r7, #44]	@ 0x2c
 80011b4:	e00d      	b.n	80011d2 <carControllerActivity+0x352>
		else if(outR > 0) outR = 270 - outR;
 80011b6:	f04f 0100 	mov.w	r1, #0
 80011ba:	6af8      	ldr	r0, [r7, #44]	@ 0x2c
 80011bc:	f7ff fdd8 	bl	8000d70 <__aeabi_fcmpgt>
 80011c0:	4603      	mov	r3, r0
 80011c2:	2b00      	cmp	r3, #0
 80011c4:	d005      	beq.n	80011d2 <carControllerActivity+0x352>
 80011c6:	6af9      	ldr	r1, [r7, #44]	@ 0x2c
 80011c8:	4829      	ldr	r0, [pc, #164]	@ (8001270 <carControllerActivity+0x3f0>)
 80011ca:	f7ff fb0b 	bl	80007e4 <__aeabi_fsub>
 80011ce:	4603      	mov	r3, r0
 80011d0:	62fb      	str	r3, [r7, #44]	@ 0x2c
		if(outR > 180.0f) outR = 180.0f;
 80011d2:	4928      	ldr	r1, [pc, #160]	@ (8001274 <carControllerActivity+0x3f4>)
 80011d4:	6af8      	ldr	r0, [r7, #44]	@ 0x2c
 80011d6:	f7ff fdcb 	bl	8000d70 <__aeabi_fcmpgt>
 80011da:	4603      	mov	r3, r0
 80011dc:	2b00      	cmp	r3, #0
 80011de:	d001      	beq.n	80011e4 <carControllerActivity+0x364>
 80011e0:	4b24      	ldr	r3, [pc, #144]	@ (8001274 <carControllerActivity+0x3f4>)
 80011e2:	62fb      	str	r3, [r7, #44]	@ 0x2c
		if(outR < 0.0f) outR = 0.0f;
 80011e4:	f04f 0100 	mov.w	r1, #0
 80011e8:	6af8      	ldr	r0, [r7, #44]	@ 0x2c
 80011ea:	f7ff fda3 	bl	8000d34 <__aeabi_fcmplt>
 80011ee:	4603      	mov	r3, r0
 80011f0:	2b00      	cmp	r3, #0
 80011f2:	d002      	beq.n	80011fa <carControllerActivity+0x37a>
 80011f4:	f04f 0300 	mov.w	r3, #0
 80011f8:	62fb      	str	r3, [r7, #44]	@ 0x2c

		//  
		outR = 180 - outR;
 80011fa:	6af9      	ldr	r1, [r7, #44]	@ 0x2c
 80011fc:	481d      	ldr	r0, [pc, #116]	@ (8001274 <carControllerActivity+0x3f4>)
 80011fe:	f7ff faf1 	bl	80007e4 <__aeabi_fsub>
 8001202:	4603      	mov	r3, r0
 8001204:	62fb      	str	r3, [r7, #44]	@ 0x2c
		if(angleP < -10)
 8001206:	4b1c      	ldr	r3, [pc, #112]	@ (8001278 <carControllerActivity+0x3f8>)
 8001208:	681b      	ldr	r3, [r3, #0]
 800120a:	491c      	ldr	r1, [pc, #112]	@ (800127c <carControllerActivity+0x3fc>)
 800120c:	4618      	mov	r0, r3
 800120e:	f7ff fd91 	bl	8000d34 <__aeabi_fcmplt>
 8001212:	4603      	mov	r3, r0
 8001214:	2b00      	cmp	r3, #0
 8001216:	d005      	beq.n	8001224 <carControllerActivity+0x3a4>
			speed = -speed;
 8001218:	f897 3033 	ldrb.w	r3, [r7, #51]	@ 0x33
 800121c:	425b      	negs	r3, r3
 800121e:	b2db      	uxtb	r3, r3
 8001220:	f887 3033 	strb.w	r3, [r7, #51]	@ 0x33


		uint8_t servo_cmd = (uint8_t)outR; //      
 8001224:	6af8      	ldr	r0, [r7, #44]	@ 0x2c
 8001226:	f7ff fdad 	bl	8000d84 <__aeabi_f2uiz>
 800122a:	4603      	mov	r3, r0
 800122c:	76bb      	strb	r3, [r7, #26]

		char tx_packet[4] = {0};
 800122e:	2300      	movs	r3, #0
 8001230:	603b      	str	r3, [r7, #0]
		tx_packet[0] = 0xFE;						//  
 8001232:	23fe      	movs	r3, #254	@ 0xfe
 8001234:	703b      	strb	r3, [r7, #0]
		tx_packet[1] = servo_cmd;
 8001236:	7ebb      	ldrb	r3, [r7, #26]
 8001238:	707b      	strb	r3, [r7, #1]
		tx_packet[2] = (char)speed;
 800123a:	f897 3033 	ldrb.w	r3, [r7, #51]	@ 0x33
 800123e:	70bb      	strb	r3, [r7, #2]
		tx_packet[3] = tx_packet[1] ^ tx_packet[2]; //  
 8001240:	787a      	ldrb	r2, [r7, #1]
 8001242:	78bb      	ldrb	r3, [r7, #2]
 8001244:	4053      	eors	r3, r2
 8001246:	b2db      	uxtb	r3, r3
 8001248:	70fb      	strb	r3, [r7, #3]
		usartWriteLine(USART1, tx_packet, 4);
 800124a:	463b      	mov	r3, r7
 800124c:	2204      	movs	r2, #4
 800124e:	4619      	mov	r1, r3
 8001250:	480b      	ldr	r0, [pc, #44]	@ (8001280 <carControllerActivity+0x400>)
 8001252:	f001 fe6f 	bl	8002f34 <usartWriteLine>

		last_send_time = millis();
 8001256:	f001 fd19 	bl	8002c8c <millis>
 800125a:	4603      	mov	r3, r0
 800125c:	4a09      	ldr	r2, [pc, #36]	@ (8001284 <carControllerActivity+0x404>)
 800125e:	6013      	str	r3, [r2, #0]
	}
}
 8001260:	bf00      	nop
 8001262:	3738      	adds	r7, #56	@ 0x38
 8001264:	46bd      	mov	sp, r7
 8001266:	bdb0      	pop	{r4, r5, r7, pc}
 8001268:	20000164 	.word	0x20000164
 800126c:	42b40000 	.word	0x42b40000
 8001270:	43870000 	.word	0x43870000
 8001274:	43340000 	.word	0x43340000
 8001278:	20000160 	.word	0x20000160
 800127c:	c1200000 	.word	0xc1200000
 8001280:	40013800 	.word	0x40013800
 8001284:	2000017c 	.word	0x2000017c

08001288 <getFingerMask>:


uint8_t getFingerMask(void){
 8001288:	b480      	push	{r7}
 800128a:	b083      	sub	sp, #12
 800128c:	af00      	add	r7, sp, #0
	uint8_t result = 0;
 800128e:	2300      	movs	r3, #0
 8001290:	71fb      	strb	r3, [r7, #7]
	for(int i = 0; i < ADC_CHANNELS_COUNT; i++){
 8001292:	2300      	movs	r3, #0
 8001294:	603b      	str	r3, [r7, #0]
 8001296:	e018      	b.n	80012ca <getFingerMask+0x42>
		if(adc_fingers[i] < fingers_thresholds[i]){
 8001298:	4a10      	ldr	r2, [pc, #64]	@ (80012dc <getFingerMask+0x54>)
 800129a:	683b      	ldr	r3, [r7, #0]
 800129c:	f832 3013 	ldrh.w	r3, [r2, r3, lsl #1]
 80012a0:	b29a      	uxth	r2, r3
 80012a2:	490f      	ldr	r1, [pc, #60]	@ (80012e0 <getFingerMask+0x58>)
 80012a4:	683b      	ldr	r3, [r7, #0]
 80012a6:	f831 3013 	ldrh.w	r3, [r1, r3, lsl #1]
 80012aa:	b29b      	uxth	r3, r3
 80012ac:	429a      	cmp	r2, r3
 80012ae:	d209      	bcs.n	80012c4 <getFingerMask+0x3c>
			result |= (1 << i);
 80012b0:	2201      	movs	r2, #1
 80012b2:	683b      	ldr	r3, [r7, #0]
 80012b4:	fa02 f303 	lsl.w	r3, r2, r3
 80012b8:	b25a      	sxtb	r2, r3
 80012ba:	f997 3007 	ldrsb.w	r3, [r7, #7]
 80012be:	4313      	orrs	r3, r2
 80012c0:	b25b      	sxtb	r3, r3
 80012c2:	71fb      	strb	r3, [r7, #7]
	for(int i = 0; i < ADC_CHANNELS_COUNT; i++){
 80012c4:	683b      	ldr	r3, [r7, #0]
 80012c6:	3301      	adds	r3, #1
 80012c8:	603b      	str	r3, [r7, #0]
 80012ca:	683b      	ldr	r3, [r7, #0]
 80012cc:	2b04      	cmp	r3, #4
 80012ce:	dde3      	ble.n	8001298 <getFingerMask+0x10>
		}
	}
	return result;
 80012d0:	79fb      	ldrb	r3, [r7, #7]
}
 80012d2:	4618      	mov	r0, r3
 80012d4:	370c      	adds	r7, #12
 80012d6:	46bd      	mov	sp, r7
 80012d8:	bc80      	pop	{r7}
 80012da:	4770      	bx	lr
 80012dc:	2000018c 	.word	0x2000018c
 80012e0:	20000000 	.word	0x20000000

080012e4 <enterCalibration>:
		last_send_time = millis();
	}
}


void enterCalibration(void){
 80012e4:	b5b0      	push	{r4, r5, r7, lr}
 80012e6:	b08e      	sub	sp, #56	@ 0x38
 80012e8:	af04      	add	r7, sp, #16
	ButtonEvent_t event = BTN_NO_EVENT;
 80012ea:	2300      	movs	r3, #0
 80012ec:	f887 3027 	strb.w	r3, [r7, #39]	@ 0x27
	uint16_t first_thresholds[ADC_CHANNELS_COUNT] = {0};
 80012f0:	f107 030c 	add.w	r3, r7, #12
 80012f4:	2200      	movs	r2, #0
 80012f6:	601a      	str	r2, [r3, #0]
 80012f8:	605a      	str	r2, [r3, #4]
 80012fa:	811a      	strh	r2, [r3, #8]
	setColor(RGB_R, RGB_G, RGB_B, C_YELLOW);
 80012fc:	4d4c      	ldr	r5, [pc, #304]	@ (8001430 <enterCalibration+0x14c>)
 80012fe:	4c4d      	ldr	r4, [pc, #308]	@ (8001434 <enterCalibration+0x150>)
 8001300:	4a4d      	ldr	r2, [pc, #308]	@ (8001438 <enterCalibration+0x154>)
 8001302:	ab02      	add	r3, sp, #8
 8001304:	8811      	ldrh	r1, [r2, #0]
 8001306:	7892      	ldrb	r2, [r2, #2]
 8001308:	8019      	strh	r1, [r3, #0]
 800130a:	709a      	strb	r2, [r3, #2]
 800130c:	4a4b      	ldr	r2, [pc, #300]	@ (800143c <enterCalibration+0x158>)
 800130e:	466b      	mov	r3, sp
 8001310:	e892 0003 	ldmia.w	r2, {r0, r1}
 8001314:	e883 0003 	stmia.w	r3, {r0, r1}
 8001318:	e895 000c 	ldmia.w	r5, {r2, r3}
 800131c:	e894 0003 	ldmia.w	r4, {r0, r1}
 8001320:	f000 fa84 	bl	800182c <setColor>
	while(!event){
 8001324:	e01b      	b.n	800135e <enterCalibration+0x7a>
		for(int i = 0; i < ADC_CHANNELS_COUNT; i++){
 8001326:	2300      	movs	r3, #0
 8001328:	623b      	str	r3, [r7, #32]
 800132a:	e00d      	b.n	8001348 <enterCalibration+0x64>
			first_thresholds[i] = adc_fingers[i];
 800132c:	4a44      	ldr	r2, [pc, #272]	@ (8001440 <enterCalibration+0x15c>)
 800132e:	6a3b      	ldr	r3, [r7, #32]
 8001330:	f832 3013 	ldrh.w	r3, [r2, r3, lsl #1]
 8001334:	b29a      	uxth	r2, r3
 8001336:	6a3b      	ldr	r3, [r7, #32]
 8001338:	005b      	lsls	r3, r3, #1
 800133a:	3328      	adds	r3, #40	@ 0x28
 800133c:	443b      	add	r3, r7
 800133e:	f823 2c1c 	strh.w	r2, [r3, #-28]
		for(int i = 0; i < ADC_CHANNELS_COUNT; i++){
 8001342:	6a3b      	ldr	r3, [r7, #32]
 8001344:	3301      	adds	r3, #1
 8001346:	623b      	str	r3, [r7, #32]
 8001348:	6a3b      	ldr	r3, [r7, #32]
 800134a:	2b04      	cmp	r3, #4
 800134c:	ddee      	ble.n	800132c <enterCalibration+0x48>
		}
		event = checkButtonPress(mode_btn);
 800134e:	4b3d      	ldr	r3, [pc, #244]	@ (8001444 <enterCalibration+0x160>)
 8001350:	e893 0003 	ldmia.w	r3, {r0, r1}
 8001354:	f000 f8f0 	bl	8001538 <checkButtonPress>
 8001358:	4603      	mov	r3, r0
 800135a:	f887 3027 	strb.w	r3, [r7, #39]	@ 0x27
	while(!event){
 800135e:	f897 3027 	ldrb.w	r3, [r7, #39]	@ 0x27
 8001362:	2b00      	cmp	r3, #0
 8001364:	d0df      	beq.n	8001326 <enterCalibration+0x42>
	}

	sysTickDelay(500);
 8001366:	f44f 70fa 	mov.w	r0, #500	@ 0x1f4
 800136a:	f001 fca7 	bl	8002cbc <sysTickDelay>
	event = BTN_NO_EVENT;
 800136e:	2300      	movs	r3, #0
 8001370:	f887 3027 	strb.w	r3, [r7, #39]	@ 0x27
	uint16_t second_thresholds[ADC_CHANNELS_COUNT] = {0};
 8001374:	463b      	mov	r3, r7
 8001376:	2200      	movs	r2, #0
 8001378:	601a      	str	r2, [r3, #0]
 800137a:	605a      	str	r2, [r3, #4]
 800137c:	811a      	strh	r2, [r3, #8]
	setColor(RGB_R, RGB_G, RGB_B, C_WHITE);
 800137e:	4d2c      	ldr	r5, [pc, #176]	@ (8001430 <enterCalibration+0x14c>)
 8001380:	4c2c      	ldr	r4, [pc, #176]	@ (8001434 <enterCalibration+0x150>)
 8001382:	4a31      	ldr	r2, [pc, #196]	@ (8001448 <enterCalibration+0x164>)
 8001384:	ab02      	add	r3, sp, #8
 8001386:	8811      	ldrh	r1, [r2, #0]
 8001388:	7892      	ldrb	r2, [r2, #2]
 800138a:	8019      	strh	r1, [r3, #0]
 800138c:	709a      	strb	r2, [r3, #2]
 800138e:	4a2b      	ldr	r2, [pc, #172]	@ (800143c <enterCalibration+0x158>)
 8001390:	466b      	mov	r3, sp
 8001392:	e892 0003 	ldmia.w	r2, {r0, r1}
 8001396:	e883 0003 	stmia.w	r3, {r0, r1}
 800139a:	e895 000c 	ldmia.w	r5, {r2, r3}
 800139e:	e894 0003 	ldmia.w	r4, {r0, r1}
 80013a2:	f000 fa43 	bl	800182c <setColor>
	while(!event){
 80013a6:	e01b      	b.n	80013e0 <enterCalibration+0xfc>
		for(int i = 0; i < ADC_CHANNELS_COUNT; i++){
 80013a8:	2300      	movs	r3, #0
 80013aa:	61fb      	str	r3, [r7, #28]
 80013ac:	e00d      	b.n	80013ca <enterCalibration+0xe6>
			second_thresholds[i] = adc_fingers[i];
 80013ae:	4a24      	ldr	r2, [pc, #144]	@ (8001440 <enterCalibration+0x15c>)
 80013b0:	69fb      	ldr	r3, [r7, #28]
 80013b2:	f832 3013 	ldrh.w	r3, [r2, r3, lsl #1]
 80013b6:	b29a      	uxth	r2, r3
 80013b8:	69fb      	ldr	r3, [r7, #28]
 80013ba:	005b      	lsls	r3, r3, #1
 80013bc:	3328      	adds	r3, #40	@ 0x28
 80013be:	443b      	add	r3, r7
 80013c0:	f823 2c28 	strh.w	r2, [r3, #-40]
		for(int i = 0; i < ADC_CHANNELS_COUNT; i++){
 80013c4:	69fb      	ldr	r3, [r7, #28]
 80013c6:	3301      	adds	r3, #1
 80013c8:	61fb      	str	r3, [r7, #28]
 80013ca:	69fb      	ldr	r3, [r7, #28]
 80013cc:	2b04      	cmp	r3, #4
 80013ce:	ddee      	ble.n	80013ae <enterCalibration+0xca>
		}
		event = checkButtonPress(mode_btn);
 80013d0:	4b1c      	ldr	r3, [pc, #112]	@ (8001444 <enterCalibration+0x160>)
 80013d2:	e893 0003 	ldmia.w	r3, {r0, r1}
 80013d6:	f000 f8af 	bl	8001538 <checkButtonPress>
 80013da:	4603      	mov	r3, r0
 80013dc:	f887 3027 	strb.w	r3, [r7, #39]	@ 0x27
	while(!event){
 80013e0:	f897 3027 	ldrb.w	r3, [r7, #39]	@ 0x27
 80013e4:	2b00      	cmp	r3, #0
 80013e6:	d0df      	beq.n	80013a8 <enterCalibration+0xc4>
	}


	//  
	for(int i = 0; i < ADC_CHANNELS_COUNT; i++){
 80013e8:	2300      	movs	r3, #0
 80013ea:	61bb      	str	r3, [r7, #24]
 80013ec:	e018      	b.n	8001420 <enterCalibration+0x13c>
		fingers_thresholds[i] = (first_thresholds[i] + second_thresholds[i]) / 2;
 80013ee:	69bb      	ldr	r3, [r7, #24]
 80013f0:	005b      	lsls	r3, r3, #1
 80013f2:	3328      	adds	r3, #40	@ 0x28
 80013f4:	443b      	add	r3, r7
 80013f6:	f833 3c1c 	ldrh.w	r3, [r3, #-28]
 80013fa:	461a      	mov	r2, r3
 80013fc:	69bb      	ldr	r3, [r7, #24]
 80013fe:	005b      	lsls	r3, r3, #1
 8001400:	3328      	adds	r3, #40	@ 0x28
 8001402:	443b      	add	r3, r7
 8001404:	f833 3c28 	ldrh.w	r3, [r3, #-40]
 8001408:	4413      	add	r3, r2
 800140a:	0fda      	lsrs	r2, r3, #31
 800140c:	4413      	add	r3, r2
 800140e:	105b      	asrs	r3, r3, #1
 8001410:	b299      	uxth	r1, r3
 8001412:	4a0e      	ldr	r2, [pc, #56]	@ (800144c <enterCalibration+0x168>)
 8001414:	69bb      	ldr	r3, [r7, #24]
 8001416:	f822 1013 	strh.w	r1, [r2, r3, lsl #1]
	for(int i = 0; i < ADC_CHANNELS_COUNT; i++){
 800141a:	69bb      	ldr	r3, [r7, #24]
 800141c:	3301      	adds	r3, #1
 800141e:	61bb      	str	r3, [r7, #24]
 8001420:	69bb      	ldr	r3, [r7, #24]
 8001422:	2b04      	cmp	r3, #4
 8001424:	dde3      	ble.n	80013ee <enterCalibration+0x10a>
	}
}
 8001426:	bf00      	nop
 8001428:	bf00      	nop
 800142a:	3728      	adds	r7, #40	@ 0x28
 800142c:	46bd      	mov	sp, r7
 800142e:	bdb0      	pop	{r4, r5, r7, pc}
 8001430:	2000004c 	.word	0x2000004c
 8001434:	20000044 	.word	0x20000044
 8001438:	2000006c 	.word	0x2000006c
 800143c:	20000054 	.word	0x20000054
 8001440:	2000018c 	.word	0x2000018c
 8001444:	08003560 	.word	0x08003560
 8001448:	20000070 	.word	0x20000070
 800144c:	20000000 	.word	0x20000000

08001450 <mpuInit>:
		new_color.green = 0;
	}
	setColor(RGB_R, RGB_G, RGB_B, new_color);
}

void mpuInit(){
 8001450:	b580      	push	{r7, lr}
 8001452:	b086      	sub	sp, #24
 8001454:	af02      	add	r7, sp, #8
	gx_offset = 0;
 8001456:	4b32      	ldr	r3, [pc, #200]	@ (8001520 <mpuInit+0xd0>)
 8001458:	f04f 0200 	mov.w	r2, #0
 800145c:	601a      	str	r2, [r3, #0]
	gy_offset = 0;
 800145e:	4b31      	ldr	r3, [pc, #196]	@ (8001524 <mpuInit+0xd4>)
 8001460:	f04f 0200 	mov.w	r2, #0
 8001464:	601a      	str	r2, [r3, #0]
	uint8_t raw[14] = {0};
 8001466:	463b      	mov	r3, r7
 8001468:	2200      	movs	r2, #0
 800146a:	601a      	str	r2, [r3, #0]
 800146c:	605a      	str	r2, [r3, #4]
 800146e:	609a      	str	r2, [r3, #8]
 8001470:	819a      	strh	r2, [r3, #12]
	for(uint8_t i = 0; i < 200; i++){
 8001472:	2300      	movs	r3, #0
 8001474:	73fb      	strb	r3, [r7, #15]
 8001476:	e038      	b.n	80014ea <mpuInit+0x9a>
		I2C_Read_Burst(I2C1, MPU_ADDR, REG_ACCEL_XOUT_H, raw, 14);
 8001478:	4b2b      	ldr	r3, [pc, #172]	@ (8001528 <mpuInit+0xd8>)
 800147a:	7819      	ldrb	r1, [r3, #0]
 800147c:	4b2b      	ldr	r3, [pc, #172]	@ (800152c <mpuInit+0xdc>)
 800147e:	781a      	ldrb	r2, [r3, #0]
 8001480:	463b      	mov	r3, r7
 8001482:	200e      	movs	r0, #14
 8001484:	9000      	str	r0, [sp, #0]
 8001486:	482a      	ldr	r0, [pc, #168]	@ (8001530 <mpuInit+0xe0>)
 8001488:	f000 ffa3 	bl	80023d2 <I2C_Read_Burst>
		gx_offset += (int16_t)(raw[8] << 8 | raw[9]);
 800148c:	7a3b      	ldrb	r3, [r7, #8]
 800148e:	b21b      	sxth	r3, r3
 8001490:	021b      	lsls	r3, r3, #8
 8001492:	b21a      	sxth	r2, r3
 8001494:	7a7b      	ldrb	r3, [r7, #9]
 8001496:	b21b      	sxth	r3, r3
 8001498:	4313      	orrs	r3, r2
 800149a:	b21b      	sxth	r3, r3
 800149c:	4618      	mov	r0, r3
 800149e:	f7ff fa57 	bl	8000950 <__aeabi_i2f>
 80014a2:	4602      	mov	r2, r0
 80014a4:	4b1e      	ldr	r3, [pc, #120]	@ (8001520 <mpuInit+0xd0>)
 80014a6:	681b      	ldr	r3, [r3, #0]
 80014a8:	4619      	mov	r1, r3
 80014aa:	4610      	mov	r0, r2
 80014ac:	f7ff f99c 	bl	80007e8 <__addsf3>
 80014b0:	4603      	mov	r3, r0
 80014b2:	461a      	mov	r2, r3
 80014b4:	4b1a      	ldr	r3, [pc, #104]	@ (8001520 <mpuInit+0xd0>)
 80014b6:	601a      	str	r2, [r3, #0]
		gy_offset += (int16_t)(raw[10] << 8 | raw[11]);
 80014b8:	7abb      	ldrb	r3, [r7, #10]
 80014ba:	b21b      	sxth	r3, r3
 80014bc:	021b      	lsls	r3, r3, #8
 80014be:	b21a      	sxth	r2, r3
 80014c0:	7afb      	ldrb	r3, [r7, #11]
 80014c2:	b21b      	sxth	r3, r3
 80014c4:	4313      	orrs	r3, r2
 80014c6:	b21b      	sxth	r3, r3
 80014c8:	4618      	mov	r0, r3
 80014ca:	f7ff fa41 	bl	8000950 <__aeabi_i2f>
 80014ce:	4602      	mov	r2, r0
 80014d0:	4b14      	ldr	r3, [pc, #80]	@ (8001524 <mpuInit+0xd4>)
 80014d2:	681b      	ldr	r3, [r3, #0]
 80014d4:	4619      	mov	r1, r3
 80014d6:	4610      	mov	r0, r2
 80014d8:	f7ff f986 	bl	80007e8 <__addsf3>
 80014dc:	4603      	mov	r3, r0
 80014de:	461a      	mov	r2, r3
 80014e0:	4b10      	ldr	r3, [pc, #64]	@ (8001524 <mpuInit+0xd4>)
 80014e2:	601a      	str	r2, [r3, #0]
	for(uint8_t i = 0; i < 200; i++){
 80014e4:	7bfb      	ldrb	r3, [r7, #15]
 80014e6:	3301      	adds	r3, #1
 80014e8:	73fb      	strb	r3, [r7, #15]
 80014ea:	7bfb      	ldrb	r3, [r7, #15]
 80014ec:	2bc7      	cmp	r3, #199	@ 0xc7
 80014ee:	d9c3      	bls.n	8001478 <mpuInit+0x28>
	}
	gx_offset /= 200;
 80014f0:	4b0b      	ldr	r3, [pc, #44]	@ (8001520 <mpuInit+0xd0>)
 80014f2:	681b      	ldr	r3, [r3, #0]
 80014f4:	490f      	ldr	r1, [pc, #60]	@ (8001534 <mpuInit+0xe4>)
 80014f6:	4618      	mov	r0, r3
 80014f8:	f7ff fb32 	bl	8000b60 <__aeabi_fdiv>
 80014fc:	4603      	mov	r3, r0
 80014fe:	461a      	mov	r2, r3
 8001500:	4b07      	ldr	r3, [pc, #28]	@ (8001520 <mpuInit+0xd0>)
 8001502:	601a      	str	r2, [r3, #0]
	gy_offset /= 200;
 8001504:	4b07      	ldr	r3, [pc, #28]	@ (8001524 <mpuInit+0xd4>)
 8001506:	681b      	ldr	r3, [r3, #0]
 8001508:	490a      	ldr	r1, [pc, #40]	@ (8001534 <mpuInit+0xe4>)
 800150a:	4618      	mov	r0, r3
 800150c:	f7ff fb28 	bl	8000b60 <__aeabi_fdiv>
 8001510:	4603      	mov	r3, r0
 8001512:	461a      	mov	r2, r3
 8001514:	4b03      	ldr	r3, [pc, #12]	@ (8001524 <mpuInit+0xd4>)
 8001516:	601a      	str	r2, [r3, #0]
}
 8001518:	bf00      	nop
 800151a:	3710      	adds	r7, #16
 800151c:	46bd      	mov	sp, r7
 800151e:	bd80      	pop	{r7, pc}
 8001520:	20000168 	.word	0x20000168
 8001524:	2000016c 	.word	0x2000016c
 8001528:	08003568 	.word	0x08003568
 800152c:	0800356a 	.word	0x0800356a
 8001530:	40005400 	.word	0x40005400
 8001534:	43480000 	.word	0x43480000

08001538 <checkButtonPress>:
#include "button.h"
ButtonEvent_t checkButtonPress(Pin_t button){
 8001538:	b580      	push	{r7, lr}
 800153a:	b084      	sub	sp, #16
 800153c:	af00      	add	r7, sp, #0
 800153e:	463b      	mov	r3, r7
 8001540:	e883 0003 	stmia.w	r3, {r0, r1}
	static uint8_t btn_was_pressed = 0;
	static uint32_t btn_press_start = 0;
	ButtonEvent_t action = BTN_NO_EVENT;
 8001544:	2300      	movs	r3, #0
 8001546:	73fb      	strb	r3, [r7, #15]
	uint8_t btn_state = !(button.port->IDR & (1 << button.number));
 8001548:	683b      	ldr	r3, [r7, #0]
 800154a:	689b      	ldr	r3, [r3, #8]
 800154c:	793a      	ldrb	r2, [r7, #4]
 800154e:	4611      	mov	r1, r2
 8001550:	2201      	movs	r2, #1
 8001552:	408a      	lsls	r2, r1
 8001554:	4013      	ands	r3, r2
 8001556:	2b00      	cmp	r3, #0
 8001558:	bf0c      	ite	eq
 800155a:	2301      	moveq	r3, #1
 800155c:	2300      	movne	r3, #0
 800155e:	b2db      	uxtb	r3, r3
 8001560:	73bb      	strb	r3, [r7, #14]
	if(btn_state && !btn_was_pressed){
 8001562:	7bbb      	ldrb	r3, [r7, #14]
 8001564:	2b00      	cmp	r3, #0
 8001566:	d00c      	beq.n	8001582 <checkButtonPress+0x4a>
 8001568:	4b17      	ldr	r3, [pc, #92]	@ (80015c8 <checkButtonPress+0x90>)
 800156a:	781b      	ldrb	r3, [r3, #0]
 800156c:	2b00      	cmp	r3, #0
 800156e:	d108      	bne.n	8001582 <checkButtonPress+0x4a>
		btn_press_start = millis();
 8001570:	f001 fb8c 	bl	8002c8c <millis>
 8001574:	4603      	mov	r3, r0
 8001576:	4a15      	ldr	r2, [pc, #84]	@ (80015cc <checkButtonPress+0x94>)
 8001578:	6013      	str	r3, [r2, #0]
		btn_was_pressed = 1;
 800157a:	4b13      	ldr	r3, [pc, #76]	@ (80015c8 <checkButtonPress+0x90>)
 800157c:	2201      	movs	r2, #1
 800157e:	701a      	strb	r2, [r3, #0]
 8001580:	e01c      	b.n	80015bc <checkButtonPress+0x84>
	}
	else if(!btn_state && btn_was_pressed){
 8001582:	7bbb      	ldrb	r3, [r7, #14]
 8001584:	2b00      	cmp	r3, #0
 8001586:	d119      	bne.n	80015bc <checkButtonPress+0x84>
 8001588:	4b0f      	ldr	r3, [pc, #60]	@ (80015c8 <checkButtonPress+0x90>)
 800158a:	781b      	ldrb	r3, [r3, #0]
 800158c:	2b00      	cmp	r3, #0
 800158e:	d015      	beq.n	80015bc <checkButtonPress+0x84>
		uint32_t press_duration = millis() - btn_press_start;
 8001590:	f001 fb7c 	bl	8002c8c <millis>
 8001594:	4602      	mov	r2, r0
 8001596:	4b0d      	ldr	r3, [pc, #52]	@ (80015cc <checkButtonPress+0x94>)
 8001598:	681b      	ldr	r3, [r3, #0]
 800159a:	1ad3      	subs	r3, r2, r3
 800159c:	60bb      	str	r3, [r7, #8]
		if(press_duration > MODE_BUTTON_DEBOUNCE_MS){
 800159e:	68bb      	ldr	r3, [r7, #8]
 80015a0:	2b96      	cmp	r3, #150	@ 0x96
 80015a2:	d908      	bls.n	80015b6 <checkButtonPress+0x7e>
			if(press_duration < LONG_PRESS_MS){
 80015a4:	68bb      	ldr	r3, [r7, #8]
 80015a6:	f5b3 7f7a 	cmp.w	r3, #1000	@ 0x3e8
 80015aa:	d202      	bcs.n	80015b2 <checkButtonPress+0x7a>
				action = BTN_SHORT_CLICK;
 80015ac:	2301      	movs	r3, #1
 80015ae:	73fb      	strb	r3, [r7, #15]
 80015b0:	e001      	b.n	80015b6 <checkButtonPress+0x7e>
			}
			else{
				action = BTN_LONG_CLICK;
 80015b2:	2302      	movs	r3, #2
 80015b4:	73fb      	strb	r3, [r7, #15]
			}
		}
		btn_was_pressed = 0;
 80015b6:	4b04      	ldr	r3, [pc, #16]	@ (80015c8 <checkButtonPress+0x90>)
 80015b8:	2200      	movs	r2, #0
 80015ba:	701a      	strb	r2, [r3, #0]
	}
	return action;
 80015bc:	7bfb      	ldrb	r3, [r7, #15]
}
 80015be:	4618      	mov	r0, r3
 80015c0:	3710      	adds	r7, #16
 80015c2:	46bd      	mov	sp, r7
 80015c4:	bd80      	pop	{r7, pc}
 80015c6:	bf00      	nop
 80015c8:	20000184 	.word	0x20000184
 80015cc:	20000188 	.word	0x20000188

080015d0 <main>:
#include "rgb.h"
#include "button.h"
#include "activities.h"

int main(void)
{
 80015d0:	b590      	push	{r4, r7, lr}
 80015d2:	b085      	sub	sp, #20
 80015d4:	af02      	add	r7, sp, #8
	RCC->APB2ENR |= RCC_APB2ENR_AFIOEN;
 80015d6:	4b4d      	ldr	r3, [pc, #308]	@ (800170c <main+0x13c>)
 80015d8:	699b      	ldr	r3, [r3, #24]
 80015da:	4a4c      	ldr	r2, [pc, #304]	@ (800170c <main+0x13c>)
 80015dc:	f043 0301 	orr.w	r3, r3, #1
 80015e0:	6193      	str	r3, [r2, #24]
	RCC->APB1ENR |= RCC_APB1ENR_I2C1EN;
 80015e2:	4b4a      	ldr	r3, [pc, #296]	@ (800170c <main+0x13c>)
 80015e4:	69db      	ldr	r3, [r3, #28]
 80015e6:	4a49      	ldr	r2, [pc, #292]	@ (800170c <main+0x13c>)
 80015e8:	f443 1300 	orr.w	r3, r3, #2097152	@ 0x200000
 80015ec:	61d3      	str	r3, [r2, #28]

	pinModeMulti(ADC_pins, ADC_CHANNELS_COUNT, GPIO_MODE_INPUT, GPIO_CNF_ANALOG, 0);
 80015ee:	2300      	movs	r3, #0
 80015f0:	9300      	str	r3, [sp, #0]
 80015f2:	2300      	movs	r3, #0
 80015f4:	2200      	movs	r2, #0
 80015f6:	2105      	movs	r1, #5
 80015f8:	4845      	ldr	r0, [pc, #276]	@ (8001710 <main+0x140>)
 80015fa:	f000 fdc3 	bl	8002184 <pinModeMulti>
	ADCInitMulti(ADC_pins, ADC_CHANNELS_COUNT, DMA_ENABLE);
 80015fe:	2201      	movs	r2, #1
 8001600:	2105      	movs	r1, #5
 8001602:	4843      	ldr	r0, [pc, #268]	@ (8001710 <main+0x140>)
 8001604:	f000 fa62 	bl	8001acc <ADCInitMulti>

	DMAInit(DMA1_Channel1, (uint32_t)&ADC1->DR, (uint32_t)adc_fingers, ADC_CHANNELS_COUNT);
 8001608:	4a42      	ldr	r2, [pc, #264]	@ (8001714 <main+0x144>)
 800160a:	2305      	movs	r3, #5
 800160c:	4942      	ldr	r1, [pc, #264]	@ (8001718 <main+0x148>)
 800160e:	4843      	ldr	r0, [pc, #268]	@ (800171c <main+0x14c>)
 8001610:	f000 fb36 	bl	8001c80 <DMAInit>


	pinMode(mode_btn, GPIO_MODE_INPUT, GPIO_CNF_INPUT_PU_PD, 1);
 8001614:	4942      	ldr	r1, [pc, #264]	@ (8001720 <main+0x150>)
 8001616:	2301      	movs	r3, #1
 8001618:	9300      	str	r3, [sp, #0]
 800161a:	2302      	movs	r3, #2
 800161c:	2200      	movs	r2, #0
 800161e:	c903      	ldmia	r1, {r0, r1}
 8001620:	f000 fd3a 	bl	8002098 <pinMode>

	softUartInit(SURx, SUTx, 9600);
 8001624:	4b3f      	ldr	r3, [pc, #252]	@ (8001724 <main+0x154>)
 8001626:	4940      	ldr	r1, [pc, #256]	@ (8001728 <main+0x158>)
 8001628:	f44f 5216 	mov.w	r2, #9600	@ 0x2580
 800162c:	9200      	str	r2, [sp, #0]
 800162e:	cb0c      	ldmia	r3, {r2, r3}
 8001630:	c903      	ldmia	r1, {r0, r1}
 8001632:	f001 f847 	bl	80026c4 <softUartInit>
	usartInit(USART1, 9600);
 8001636:	f44f 5116 	mov.w	r1, #9600	@ 0x2580
 800163a:	483c      	ldr	r0, [pc, #240]	@ (800172c <main+0x15c>)
 800163c:	f001 fbfa 	bl	8002e34 <usartInit>

	sysTickInit();
 8001640:	f001 fb1c 	bl	8002c7c <sysTickInit>

	I2C_Init(I2C1, SDA, SCL);
 8001644:	4b3a      	ldr	r3, [pc, #232]	@ (8001730 <main+0x160>)
 8001646:	493b      	ldr	r1, [pc, #236]	@ (8001734 <main+0x164>)
 8001648:	685a      	ldr	r2, [r3, #4]
 800164a:	9200      	str	r2, [sp, #0]
 800164c:	681b      	ldr	r3, [r3, #0]
 800164e:	c906      	ldmia	r1, {r1, r2}
 8001650:	4839      	ldr	r0, [pc, #228]	@ (8001738 <main+0x168>)
 8001652:	f000 fdbf 	bl	80021d4 <I2C_Init>
	I2C_WriteReg(I2C1, MPU_ADDR, REG_PWR_MGMT_1, SET_MPU_PWR_MGMT_1_WAKE);
 8001656:	4b39      	ldr	r3, [pc, #228]	@ (800173c <main+0x16c>)
 8001658:	7819      	ldrb	r1, [r3, #0]
 800165a:	4b39      	ldr	r3, [pc, #228]	@ (8001740 <main+0x170>)
 800165c:	781a      	ldrb	r2, [r3, #0]
 800165e:	4b39      	ldr	r3, [pc, #228]	@ (8001744 <main+0x174>)
 8001660:	781b      	ldrb	r3, [r3, #0]
 8001662:	4835      	ldr	r0, [pc, #212]	@ (8001738 <main+0x168>)
 8001664:	f000 fe93 	bl	800238e <I2C_WriteReg>
	sysTickDelay(50);
 8001668:	2032      	movs	r0, #50	@ 0x32
 800166a:	f001 fb27 	bl	8002cbc <sysTickDelay>
	I2C_WriteReg(I2C1, MPU_ADDR, 0x6A, 0x00);
 800166e:	4b33      	ldr	r3, [pc, #204]	@ (800173c <main+0x16c>)
 8001670:	7819      	ldrb	r1, [r3, #0]
 8001672:	2300      	movs	r3, #0
 8001674:	226a      	movs	r2, #106	@ 0x6a
 8001676:	4830      	ldr	r0, [pc, #192]	@ (8001738 <main+0x168>)
 8001678:	f000 fe89 	bl	800238e <I2C_WriteReg>
	sysTickDelay(50);
 800167c:	2032      	movs	r0, #50	@ 0x32
 800167e:	f001 fb1d 	bl	8002cbc <sysTickDelay>



	//	uint32_t *braindead  = NULL;
//	*braindead  = 0x1241FF;
	RGBInit(RGB_R, RGB_G, RGB_B);
 8001682:	4a31      	ldr	r2, [pc, #196]	@ (8001748 <main+0x178>)
 8001684:	4c31      	ldr	r4, [pc, #196]	@ (800174c <main+0x17c>)
 8001686:	4932      	ldr	r1, [pc, #200]	@ (8001750 <main+0x180>)
 8001688:	466b      	mov	r3, sp
 800168a:	c903      	ldmia	r1, {r0, r1}
 800168c:	e883 0003 	stmia.w	r3, {r0, r1}
 8001690:	ca0c      	ldmia	r2, {r2, r3}
 8001692:	e894 0003 	ldmia.w	r4, {r0, r1}
 8001696:	f000 f88f 	bl	80017b8 <RGBInit>
	mpuInit();
 800169a:	f7ff fed9 	bl	8001450 <mpuInit>
	while(1){
		ButtonEvent_t event = checkButtonPress(mode_btn);
 800169e:	4b20      	ldr	r3, [pc, #128]	@ (8001720 <main+0x150>)
 80016a0:	e893 0003 	ldmia.w	r3, {r0, r1}
 80016a4:	f7ff ff48 	bl	8001538 <checkButtonPress>
 80016a8:	4603      	mov	r3, r0
 80016aa:	71fb      	strb	r3, [r7, #7]
		switch(event){
 80016ac:	79fb      	ldrb	r3, [r7, #7]
 80016ae:	2b01      	cmp	r3, #1
 80016b0:	d002      	beq.n	80016b8 <main+0xe8>
 80016b2:	2b02      	cmp	r3, #2
 80016b4:	d011      	beq.n	80016da <main+0x10a>
			case BTN_LONG_CLICK:{
				enterCalibration();
				break;
			}
			default:{
				break;
 80016b6:	e013      	b.n	80016e0 <main+0x110>
				current_mode = (current_mode + 1) % MODES_AMOUNT;
 80016b8:	4b26      	ldr	r3, [pc, #152]	@ (8001754 <main+0x184>)
 80016ba:	781b      	ldrb	r3, [r3, #0]
 80016bc:	b2db      	uxtb	r3, r3
 80016be:	1c5a      	adds	r2, r3, #1
 80016c0:	4b25      	ldr	r3, [pc, #148]	@ (8001758 <main+0x188>)
 80016c2:	fb83 3102 	smull	r3, r1, r3, r2
 80016c6:	17d3      	asrs	r3, r2, #31
 80016c8:	1ac9      	subs	r1, r1, r3
 80016ca:	460b      	mov	r3, r1
 80016cc:	005b      	lsls	r3, r3, #1
 80016ce:	440b      	add	r3, r1
 80016d0:	1ad1      	subs	r1, r2, r3
 80016d2:	b2ca      	uxtb	r2, r1
 80016d4:	4b1f      	ldr	r3, [pc, #124]	@ (8001754 <main+0x184>)
 80016d6:	701a      	strb	r2, [r3, #0]
				break;
 80016d8:	e002      	b.n	80016e0 <main+0x110>
				enterCalibration();
 80016da:	f7ff fe03 	bl	80012e4 <enterCalibration>
				break;
 80016de:	bf00      	nop
			}
		}
		switch(current_mode){
 80016e0:	4b1c      	ldr	r3, [pc, #112]	@ (8001754 <main+0x184>)
 80016e2:	781b      	ldrb	r3, [r3, #0]
 80016e4:	b2db      	uxtb	r3, r3
 80016e6:	2b02      	cmp	r3, #2
 80016e8:	d00c      	beq.n	8001704 <main+0x134>
 80016ea:	2b02      	cmp	r3, #2
 80016ec:	dc0c      	bgt.n	8001708 <main+0x138>
 80016ee:	2b00      	cmp	r3, #0
 80016f0:	d002      	beq.n	80016f8 <main+0x128>
 80016f2:	2b01      	cmp	r3, #1
 80016f4:	d003      	beq.n	80016fe <main+0x12e>
			case COMPASS_MODE:{
				//compassActivity();
				break;
			}
			default:{
				break;
 80016f6:	e007      	b.n	8001708 <main+0x138>
				keyboardActivity();
 80016f8:	f7ff fb64 	bl	8000dc4 <keyboardActivity>
				break;
 80016fc:	e005      	b.n	800170a <main+0x13a>
				carControllerActivity();
 80016fe:	f7ff fbbf 	bl	8000e80 <carControllerActivity>
				break;
 8001702:	e002      	b.n	800170a <main+0x13a>
				break;
 8001704:	bf00      	nop
 8001706:	e7ca      	b.n	800169e <main+0xce>
				break;
 8001708:	bf00      	nop
	while(1){
 800170a:	e7c8      	b.n	800169e <main+0xce>
 800170c:	40021000 	.word	0x40021000
 8001710:	2000001c 	.word	0x2000001c
 8001714:	2000018c 	.word	0x2000018c
 8001718:	4001244c 	.word	0x4001244c
 800171c:	40020008 	.word	0x40020008
 8001720:	08003560 	.word	0x08003560
 8001724:	20000014 	.word	0x20000014
 8001728:	2000000c 	.word	0x2000000c
 800172c:	40013800 	.word	0x40013800
 8001730:	20000064 	.word	0x20000064
 8001734:	2000005c 	.word	0x2000005c
 8001738:	40005400 	.word	0x40005400
 800173c:	08003568 	.word	0x08003568
 8001740:	08003569 	.word	0x08003569
 8001744:	0800356b 	.word	0x0800356b
 8001748:	2000004c 	.word	0x2000004c
 800174c:	20000044 	.word	0x20000044
 8001750:	20000054 	.word	0x20000054
 8001754:	20000196 	.word	0x20000196
 8001758:	55555556 	.word	0x55555556

0800175c <HardFault_Handler>:

	}
}


void HardFault_Handler(void){
 800175c:	b5b0      	push	{r4, r5, r7, lr}
 800175e:	b086      	sub	sp, #24
 8001760:	af04      	add	r7, sp, #16
  \details Disables IRQ interrupts by setting the I-bit in the CPSR.
           Can only be executed in Privileged modes.
 */
__STATIC_FORCEINLINE void __disable_irq(void)
{
  __ASM volatile ("cpsid i" : : : "memory");
 8001762:	b672      	cpsid	i
}
 8001764:	bf00      	nop
	__disable_irq();
	Color error_color = {155, 0, 155};
 8001766:	4a10      	ldr	r2, [pc, #64]	@ (80017a8 <HardFault_Handler+0x4c>)
 8001768:	1d3b      	adds	r3, r7, #4
 800176a:	6812      	ldr	r2, [r2, #0]
 800176c:	4611      	mov	r1, r2
 800176e:	8019      	strh	r1, [r3, #0]
 8001770:	3302      	adds	r3, #2
 8001772:	0c12      	lsrs	r2, r2, #16
 8001774:	701a      	strb	r2, [r3, #0]
	setColor(RGB_R, RGB_G, RGB_B, error_color);
 8001776:	4d0d      	ldr	r5, [pc, #52]	@ (80017ac <HardFault_Handler+0x50>)
 8001778:	4c0d      	ldr	r4, [pc, #52]	@ (80017b0 <HardFault_Handler+0x54>)
 800177a:	ab02      	add	r3, sp, #8
 800177c:	1d3a      	adds	r2, r7, #4
 800177e:	6812      	ldr	r2, [r2, #0]
 8001780:	4611      	mov	r1, r2
 8001782:	8019      	strh	r1, [r3, #0]
 8001784:	3302      	adds	r3, #2
 8001786:	0c12      	lsrs	r2, r2, #16
 8001788:	701a      	strb	r2, [r3, #0]
 800178a:	4a0a      	ldr	r2, [pc, #40]	@ (80017b4 <HardFault_Handler+0x58>)
 800178c:	466b      	mov	r3, sp
 800178e:	e892 0003 	ldmia.w	r2, {r0, r1}
 8001792:	e883 0003 	stmia.w	r3, {r0, r1}
 8001796:	e895 000c 	ldmia.w	r5, {r2, r3}
 800179a:	e894 0003 	ldmia.w	r4, {r0, r1}
 800179e:	f000 f845 	bl	800182c <setColor>
	while(1){
 80017a2:	bf00      	nop
 80017a4:	e7fd      	b.n	80017a2 <HardFault_Handler+0x46>
 80017a6:	bf00      	nop
 80017a8:	08003538 	.word	0x08003538
 80017ac:	2000004c 	.word	0x2000004c
 80017b0:	20000044 	.word	0x20000044
 80017b4:	20000054 	.word	0x20000054

080017b8 <RGBInit>:
	  C_WHITE = {255, 255, 255},
	  C_AMBER = {255, 50, 0},
	  C_PURPLE = {255, 0, 255};


void RGBInit(Pin_t red, Pin_t green, Pin_t blue){
 80017b8:	b590      	push	{r4, r7, lr}
 80017ba:	b087      	sub	sp, #28
 80017bc:	af02      	add	r7, sp, #8
 80017be:	f107 0408 	add.w	r4, r7, #8
 80017c2:	e884 0003 	stmia.w	r4, {r0, r1}
 80017c6:	4639      	mov	r1, r7
 80017c8:	e881 000c 	stmia.w	r1, {r2, r3}
	pinMode(red, GPIO_MODE_OUTPUT_2MHz, GPIO_CNF_PUSH_PULL_ALT, 0);
 80017cc:	2300      	movs	r3, #0
 80017ce:	9300      	str	r3, [sp, #0]
 80017d0:	2302      	movs	r3, #2
 80017d2:	2202      	movs	r2, #2
 80017d4:	f107 0108 	add.w	r1, r7, #8
 80017d8:	c903      	ldmia	r1, {r0, r1}
 80017da:	f000 fc5d 	bl	8002098 <pinMode>
	pinMode(green, GPIO_MODE_OUTPUT_2MHz, GPIO_CNF_PUSH_PULL_ALT, 0);
 80017de:	2300      	movs	r3, #0
 80017e0:	9300      	str	r3, [sp, #0]
 80017e2:	2302      	movs	r3, #2
 80017e4:	2202      	movs	r2, #2
 80017e6:	4639      	mov	r1, r7
 80017e8:	c903      	ldmia	r1, {r0, r1}
 80017ea:	f000 fc55 	bl	8002098 <pinMode>
	pinMode(blue, GPIO_MODE_OUTPUT_2MHz, GPIO_CNF_PUSH_PULL_ALT, 0);
 80017ee:	2300      	movs	r3, #0
 80017f0:	9300      	str	r3, [sp, #0]
 80017f2:	2302      	movs	r3, #2
 80017f4:	2202      	movs	r2, #2
 80017f6:	f107 0120 	add.w	r1, r7, #32
 80017fa:	c903      	ldmia	r1, {r0, r1}
 80017fc:	f000 fc4c 	bl	8002098 <pinMode>
	pwmInit(red);
 8001800:	f107 0308 	add.w	r3, r7, #8
 8001804:	e893 0003 	ldmia.w	r3, {r0, r1}
 8001808:	f000 fe52 	bl	80024b0 <pwmInit>
	pwmInit(green);
 800180c:	463b      	mov	r3, r7
 800180e:	e893 0003 	ldmia.w	r3, {r0, r1}
 8001812:	f000 fe4d 	bl	80024b0 <pwmInit>
	pwmInit(blue);
 8001816:	f107 0320 	add.w	r3, r7, #32
 800181a:	e893 0003 	ldmia.w	r3, {r0, r1}
 800181e:	f000 fe47 	bl	80024b0 <pwmInit>
}
 8001822:	bf00      	nop
 8001824:	3714      	adds	r7, #20
 8001826:	46bd      	mov	sp, r7
 8001828:	bd90      	pop	{r4, r7, pc}
	...

0800182c <setColor>:


void setColor(Pin_t red, Pin_t green, Pin_t blue, Color new_color){
 800182c:	b590      	push	{r4, r7, lr}
 800182e:	b085      	sub	sp, #20
 8001830:	af00      	add	r7, sp, #0
 8001832:	f107 0408 	add.w	r4, r7, #8
 8001836:	e884 0003 	stmia.w	r4, {r0, r1}
 800183a:	4639      	mov	r1, r7
 800183c:	e881 000c 	stmia.w	r1, {r2, r3}
	pwmWrite(red, new_color.red*TIM3->ARR / 255);
 8001840:	f897 3028 	ldrb.w	r3, [r7, #40]	@ 0x28
 8001844:	461a      	mov	r2, r3
 8001846:	4b1c      	ldr	r3, [pc, #112]	@ (80018b8 <setColor+0x8c>)
 8001848:	6adb      	ldr	r3, [r3, #44]	@ 0x2c
 800184a:	fb02 f303 	mul.w	r3, r2, r3
 800184e:	4a1b      	ldr	r2, [pc, #108]	@ (80018bc <setColor+0x90>)
 8001850:	fba2 2303 	umull	r2, r3, r2, r3
 8001854:	09db      	lsrs	r3, r3, #7
 8001856:	b29b      	uxth	r3, r3
 8001858:	461a      	mov	r2, r3
 800185a:	f107 0308 	add.w	r3, r7, #8
 800185e:	e893 0003 	ldmia.w	r3, {r0, r1}
 8001862:	f000 fe89 	bl	8002578 <pwmWrite>
	pwmWrite(green, new_color.green*TIM3->ARR / 255);
 8001866:	f897 3029 	ldrb.w	r3, [r7, #41]	@ 0x29
 800186a:	461a      	mov	r2, r3
 800186c:	4b12      	ldr	r3, [pc, #72]	@ (80018b8 <setColor+0x8c>)
 800186e:	6adb      	ldr	r3, [r3, #44]	@ 0x2c
 8001870:	fb02 f303 	mul.w	r3, r2, r3
 8001874:	4a11      	ldr	r2, [pc, #68]	@ (80018bc <setColor+0x90>)
 8001876:	fba2 2303 	umull	r2, r3, r2, r3
 800187a:	09db      	lsrs	r3, r3, #7
 800187c:	b29b      	uxth	r3, r3
 800187e:	461a      	mov	r2, r3
 8001880:	463b      	mov	r3, r7
 8001882:	e893 0003 	ldmia.w	r3, {r0, r1}
 8001886:	f000 fe77 	bl	8002578 <pwmWrite>
	pwmWrite(blue, new_color.blue*TIM3->ARR / 255);
 800188a:	f897 302a 	ldrb.w	r3, [r7, #42]	@ 0x2a
 800188e:	461a      	mov	r2, r3
 8001890:	4b09      	ldr	r3, [pc, #36]	@ (80018b8 <setColor+0x8c>)
 8001892:	6adb      	ldr	r3, [r3, #44]	@ 0x2c
 8001894:	fb02 f303 	mul.w	r3, r2, r3
 8001898:	4a08      	ldr	r2, [pc, #32]	@ (80018bc <setColor+0x90>)
 800189a:	fba2 2303 	umull	r2, r3, r2, r3
 800189e:	09db      	lsrs	r3, r3, #7
 80018a0:	b29b      	uxth	r3, r3
 80018a2:	461a      	mov	r2, r3
 80018a4:	f107 0320 	add.w	r3, r7, #32
 80018a8:	e893 0003 	ldmia.w	r3, {r0, r1}
 80018ac:	f000 fe64 	bl	8002578 <pwmWrite>
}
 80018b0:	bf00      	nop
 80018b2:	3714      	adds	r7, #20
 80018b4:	46bd      	mov	sp, r7
 80018b6:	bd90      	pop	{r4, r7, pc}
 80018b8:	40000400 	.word	0x40000400
 80018bc:	80808081 	.word	0x80808081

080018c0 <getStateColor>:


Color getStateColor(uint8_t hue_min, uint8_t hue_max){
 80018c0:	b580      	push	{r7, lr}
 80018c2:	b084      	sub	sp, #16
 80018c4:	af00      	add	r7, sp, #0
 80018c6:	4603      	mov	r3, r0
 80018c8:	460a      	mov	r2, r1
 80018ca:	71fb      	strb	r3, [r7, #7]
 80018cc:	4613      	mov	r3, r2
 80018ce:	71bb      	strb	r3, [r7, #6]
	static uint8_t hue = 0, forwards = 1;

	if(hue <= hue_min){
 80018d0:	4b20      	ldr	r3, [pc, #128]	@ (8001954 <getStateColor+0x94>)
 80018d2:	781b      	ldrb	r3, [r3, #0]
 80018d4:	79fa      	ldrb	r2, [r7, #7]
 80018d6:	429a      	cmp	r2, r3
 80018d8:	d306      	bcc.n	80018e8 <getStateColor+0x28>
		hue = hue_min;
 80018da:	4a1e      	ldr	r2, [pc, #120]	@ (8001954 <getStateColor+0x94>)
 80018dc:	79fb      	ldrb	r3, [r7, #7]
 80018de:	7013      	strb	r3, [r2, #0]
		forwards = 1;
 80018e0:	4b1d      	ldr	r3, [pc, #116]	@ (8001958 <getStateColor+0x98>)
 80018e2:	2201      	movs	r2, #1
 80018e4:	701a      	strb	r2, [r3, #0]
 80018e6:	e00a      	b.n	80018fe <getStateColor+0x3e>
	}
	else if(hue >= hue_max){
 80018e8:	4b1a      	ldr	r3, [pc, #104]	@ (8001954 <getStateColor+0x94>)
 80018ea:	781b      	ldrb	r3, [r3, #0]
 80018ec:	79ba      	ldrb	r2, [r7, #6]
 80018ee:	429a      	cmp	r2, r3
 80018f0:	d805      	bhi.n	80018fe <getStateColor+0x3e>
		hue = hue_max;
 80018f2:	4a18      	ldr	r2, [pc, #96]	@ (8001954 <getStateColor+0x94>)
 80018f4:	79bb      	ldrb	r3, [r7, #6]
 80018f6:	7013      	strb	r3, [r2, #0]
		forwards = 0;
 80018f8:	4b17      	ldr	r3, [pc, #92]	@ (8001958 <getStateColor+0x98>)
 80018fa:	2200      	movs	r2, #0
 80018fc:	701a      	strb	r2, [r3, #0]
	}

	hue = forwards? hue + 1 : hue - 1;
 80018fe:	4b16      	ldr	r3, [pc, #88]	@ (8001958 <getStateColor+0x98>)
 8001900:	781b      	ldrb	r3, [r3, #0]
 8001902:	2b00      	cmp	r3, #0
 8001904:	d004      	beq.n	8001910 <getStateColor+0x50>
 8001906:	4b13      	ldr	r3, [pc, #76]	@ (8001954 <getStateColor+0x94>)
 8001908:	781b      	ldrb	r3, [r3, #0]
 800190a:	3301      	adds	r3, #1
 800190c:	b2db      	uxtb	r3, r3
 800190e:	e003      	b.n	8001918 <getStateColor+0x58>
 8001910:	4b10      	ldr	r3, [pc, #64]	@ (8001954 <getStateColor+0x94>)
 8001912:	781b      	ldrb	r3, [r3, #0]
 8001914:	3b01      	subs	r3, #1
 8001916:	b2db      	uxtb	r3, r3
 8001918:	4a0e      	ldr	r2, [pc, #56]	@ (8001954 <getStateColor+0x94>)
 800191a:	7013      	strb	r3, [r2, #0]
	return getRainbowColor(hue);
 800191c:	4b0d      	ldr	r3, [pc, #52]	@ (8001954 <getStateColor+0x94>)
 800191e:	781b      	ldrb	r3, [r3, #0]
 8001920:	4618      	mov	r0, r3
 8001922:	f000 f81b 	bl	800195c <getRainbowColor>
 8001926:	4603      	mov	r3, r0
 8001928:	461a      	mov	r2, r3
 800192a:	733a      	strb	r2, [r7, #12]
 800192c:	f3c3 2207 	ubfx	r2, r3, #8, #8
 8001930:	737a      	strb	r2, [r7, #13]
 8001932:	f3c3 4307 	ubfx	r3, r3, #16, #8
 8001936:	73bb      	strb	r3, [r7, #14]
 8001938:	2300      	movs	r3, #0
 800193a:	7b3a      	ldrb	r2, [r7, #12]
 800193c:	f362 0307 	bfi	r3, r2, #0, #8
 8001940:	7b7a      	ldrb	r2, [r7, #13]
 8001942:	f362 230f 	bfi	r3, r2, #8, #8
 8001946:	7bba      	ldrb	r2, [r7, #14]
 8001948:	f362 4317 	bfi	r3, r2, #16, #8
}
 800194c:	4618      	mov	r0, r3
 800194e:	3710      	adds	r7, #16
 8001950:	46bd      	mov	sp, r7
 8001952:	bd80      	pop	{r7, pc}
 8001954:	200001a4 	.word	0x200001a4
 8001958:	20000073 	.word	0x20000073

0800195c <getRainbowColor>:


Color getRainbowColor(uint8_t hue) {
 800195c:	b480      	push	{r7}
 800195e:	b085      	sub	sp, #20
 8001960:	af00      	add	r7, sp, #0
 8001962:	4603      	mov	r3, r0
 8001964:	71fb      	strb	r3, [r7, #7]
    Color c;
    if (hue < 85) {
 8001966:	79fb      	ldrb	r3, [r7, #7]
 8001968:	2b54      	cmp	r3, #84	@ 0x54
 800196a:	d818      	bhi.n	800199e <getRainbowColor+0x42>
        c.red = 255 - hue * 3;
 800196c:	79fb      	ldrb	r3, [r7, #7]
 800196e:	461a      	mov	r2, r3
 8001970:	009b      	lsls	r3, r3, #2
 8001972:	1ad3      	subs	r3, r2, r3
 8001974:	b2db      	uxtb	r3, r3
 8001976:	3b01      	subs	r3, #1
 8001978:	b2db      	uxtb	r3, r3
 800197a:	723b      	strb	r3, [r7, #8]
        c.green = hue * 3 * 15 / 100;
 800197c:	79fa      	ldrb	r2, [r7, #7]
 800197e:	4613      	mov	r3, r2
 8001980:	005b      	lsls	r3, r3, #1
 8001982:	4413      	add	r3, r2
 8001984:	011a      	lsls	r2, r3, #4
 8001986:	1ad3      	subs	r3, r2, r3
 8001988:	4a26      	ldr	r2, [pc, #152]	@ (8001a24 <getRainbowColor+0xc8>)
 800198a:	fb82 1203 	smull	r1, r2, r2, r3
 800198e:	1152      	asrs	r2, r2, #5
 8001990:	17db      	asrs	r3, r3, #31
 8001992:	1ad3      	subs	r3, r2, r3
 8001994:	b2db      	uxtb	r3, r3
 8001996:	727b      	strb	r3, [r7, #9]
        c.blue = 0;
 8001998:	2300      	movs	r3, #0
 800199a:	72bb      	strb	r3, [r7, #10]
 800199c:	e029      	b.n	80019f2 <getRainbowColor+0x96>
    } else if (hue < 170) {
 800199e:	79fb      	ldrb	r3, [r7, #7]
 80019a0:	2ba9      	cmp	r3, #169	@ 0xa9
 80019a2:	d813      	bhi.n	80019cc <getRainbowColor+0x70>
        hue -= 85;
 80019a4:	79fb      	ldrb	r3, [r7, #7]
 80019a6:	3b55      	subs	r3, #85	@ 0x55
 80019a8:	71fb      	strb	r3, [r7, #7]
        c.red = 0;
 80019aa:	2300      	movs	r3, #0
 80019ac:	723b      	strb	r3, [r7, #8]
        c.green = 255 - hue * 3;
 80019ae:	79fb      	ldrb	r3, [r7, #7]
 80019b0:	461a      	mov	r2, r3
 80019b2:	009b      	lsls	r3, r3, #2
 80019b4:	1ad3      	subs	r3, r2, r3
 80019b6:	b2db      	uxtb	r3, r3
 80019b8:	3b01      	subs	r3, #1
 80019ba:	b2db      	uxtb	r3, r3
 80019bc:	727b      	strb	r3, [r7, #9]
        c.blue = hue * 3;
 80019be:	79fb      	ldrb	r3, [r7, #7]
 80019c0:	461a      	mov	r2, r3
 80019c2:	0052      	lsls	r2, r2, #1
 80019c4:	4413      	add	r3, r2
 80019c6:	b2db      	uxtb	r3, r3
 80019c8:	72bb      	strb	r3, [r7, #10]
 80019ca:	e012      	b.n	80019f2 <getRainbowColor+0x96>
    } else {
        hue -= 170;
 80019cc:	79fb      	ldrb	r3, [r7, #7]
 80019ce:	3356      	adds	r3, #86	@ 0x56
 80019d0:	71fb      	strb	r3, [r7, #7]
        c.red = hue * 3;
 80019d2:	79fb      	ldrb	r3, [r7, #7]
 80019d4:	461a      	mov	r2, r3
 80019d6:	0052      	lsls	r2, r2, #1
 80019d8:	4413      	add	r3, r2
 80019da:	b2db      	uxtb	r3, r3
 80019dc:	723b      	strb	r3, [r7, #8]
        c.green = 0;
 80019de:	2300      	movs	r3, #0
 80019e0:	727b      	strb	r3, [r7, #9]
        c.blue = 255 - hue * 3;
 80019e2:	79fb      	ldrb	r3, [r7, #7]
 80019e4:	461a      	mov	r2, r3
 80019e6:	009b      	lsls	r3, r3, #2
 80019e8:	1ad3      	subs	r3, r2, r3
 80019ea:	b2db      	uxtb	r3, r3
 80019ec:	3b01      	subs	r3, #1
 80019ee:	b2db      	uxtb	r3, r3
 80019f0:	72bb      	strb	r3, [r7, #10]
    }
    return c;
 80019f2:	f107 030c 	add.w	r3, r7, #12
 80019f6:	f107 0208 	add.w	r2, r7, #8
 80019fa:	6812      	ldr	r2, [r2, #0]
 80019fc:	4611      	mov	r1, r2
 80019fe:	8019      	strh	r1, [r3, #0]
 8001a00:	3302      	adds	r3, #2
 8001a02:	0c12      	lsrs	r2, r2, #16
 8001a04:	701a      	strb	r2, [r3, #0]
 8001a06:	2300      	movs	r3, #0
 8001a08:	7b3a      	ldrb	r2, [r7, #12]
 8001a0a:	f362 0307 	bfi	r3, r2, #0, #8
 8001a0e:	7b7a      	ldrb	r2, [r7, #13]
 8001a10:	f362 230f 	bfi	r3, r2, #8, #8
 8001a14:	7bba      	ldrb	r2, [r7, #14]
 8001a16:	f362 4317 	bfi	r3, r2, #16, #8
}
 8001a1a:	4618      	mov	r0, r3
 8001a1c:	3714      	adds	r7, #20
 8001a1e:	46bd      	mov	sp, r7
 8001a20:	bc80      	pop	{r7}
 8001a22:	4770      	bx	lr
 8001a24:	51eb851f 	.word	0x51eb851f

08001a28 <Reset_Handler>:

  .section .text.Reset_Handler
  .weak Reset_Handler
  .type Reset_Handler, %function
Reset_Handler:
  ldr   r0, =_estack
 8001a28:	480d      	ldr	r0, [pc, #52]	@ (8001a60 <LoopForever+0x2>)
  mov   sp, r0          /* set stack pointer */
 8001a2a:	4685      	mov	sp, r0
/* Call the clock system initialization function.*/
  bl  SystemInit
 8001a2c:	f3af 8000 	nop.w

/* Copy the data segment initializers from flash to SRAM */
  ldr r0, =_sdata
 8001a30:	480c      	ldr	r0, [pc, #48]	@ (8001a64 <LoopForever+0x6>)
  ldr r1, =_edata
 8001a32:	490d      	ldr	r1, [pc, #52]	@ (8001a68 <LoopForever+0xa>)
  ldr r2, =_sidata
 8001a34:	4a0d      	ldr	r2, [pc, #52]	@ (8001a6c <LoopForever+0xe>)
  movs r3, #0
 8001a36:	2300      	movs	r3, #0
  b LoopCopyDataInit
 8001a38:	e002      	b.n	8001a40 <LoopCopyDataInit>

08001a3a <CopyDataInit>:

CopyDataInit:
  ldr r4, [r2, r3]
 8001a3a:	58d4      	ldr	r4, [r2, r3]
  str r4, [r0, r3]
 8001a3c:	50c4      	str	r4, [r0, r3]
  adds r3, r3, #4
 8001a3e:	3304      	adds	r3, #4

08001a40 <LoopCopyDataInit>:

LoopCopyDataInit:
  adds r4, r0, r3
 8001a40:	18c4      	adds	r4, r0, r3
  cmp r4, r1
 8001a42:	428c      	cmp	r4, r1
  bcc CopyDataInit
 8001a44:	d3f9      	bcc.n	8001a3a <CopyDataInit>

/* Zero fill the bss segment. */
  ldr r2, =_sbss
 8001a46:	4a0a      	ldr	r2, [pc, #40]	@ (8001a70 <LoopForever+0x12>)
  ldr r4, =_ebss
 8001a48:	4c0a      	ldr	r4, [pc, #40]	@ (8001a74 <LoopForever+0x16>)
  movs r3, #0
 8001a4a:	2300      	movs	r3, #0
  b LoopFillZerobss
 8001a4c:	e001      	b.n	8001a52 <LoopFillZerobss>

08001a4e <FillZerobss>:

FillZerobss:
  str  r3, [r2]
 8001a4e:	6013      	str	r3, [r2, #0]
  adds r2, r2, #4
 8001a50:	3204      	adds	r2, #4

08001a52 <LoopFillZerobss>:

LoopFillZerobss:
  cmp r2, r4
 8001a52:	42a2      	cmp	r2, r4
  bcc FillZerobss
 8001a54:	d3fb      	bcc.n	8001a4e <FillZerobss>


/* Call static constructors */
  bl __libc_init_array
 8001a56:	f001 fba5 	bl	80031a4 <__libc_init_array>
/* Call the application's entry point.*/

  bl main
 8001a5a:	f7ff fdb9 	bl	80015d0 <main>

08001a5e <LoopForever>:

LoopForever:
  b LoopForever
 8001a5e:	e7fe      	b.n	8001a5e <LoopForever>
  ldr   r0, =_estack
 8001a60:	20002800 	.word	0x20002800
  ldr r0, =_sdata
 8001a64:	20000000 	.word	0x20000000
  ldr r1, =_edata
 8001a68:	20000144 	.word	0x20000144
  ldr r2, =_sidata
 8001a6c:	080035cc 	.word	0x080035cc
  ldr r2, =_sbss
 8001a70:	20000144 	.word	0x20000144
  ldr r4, =_ebss
 8001a74:	20000674 	.word	0x20000674

08001a78 <ADC1_2_IRQHandler>:
 * @retval : None
*/
  .section .text.Default_Handler,"ax",%progbits
Default_Handler:
Infinite_Loop:
  b Infinite_Loop
 8001a78:	e7fe      	b.n	8001a78 <ADC1_2_IRQHandler>
	...

08001a7c <getChannelNumber>:
#include "../inc/adc.h"
uint8_t getChannelNumber(Pin_t pin){
 8001a7c:	b480      	push	{r7}
 8001a7e:	b083      	sub	sp, #12
 8001a80:	af00      	add	r7, sp, #0
 8001a82:	463b      	mov	r3, r7
 8001a84:	e883 0003 	stmia.w	r3, {r0, r1}
	if(pin.port == GPIOA) return pin.number;
 8001a88:	683b      	ldr	r3, [r7, #0]
 8001a8a:	4a0d      	ldr	r2, [pc, #52]	@ (8001ac0 <getChannelNumber+0x44>)
 8001a8c:	4293      	cmp	r3, r2
 8001a8e:	d101      	bne.n	8001a94 <getChannelNumber+0x18>
 8001a90:	793b      	ldrb	r3, [r7, #4]
 8001a92:	e010      	b.n	8001ab6 <getChannelNumber+0x3a>
	if(pin.port == GPIOB) return pin.number + 8;
 8001a94:	683b      	ldr	r3, [r7, #0]
 8001a96:	4a0b      	ldr	r2, [pc, #44]	@ (8001ac4 <getChannelNumber+0x48>)
 8001a98:	4293      	cmp	r3, r2
 8001a9a:	d103      	bne.n	8001aa4 <getChannelNumber+0x28>
 8001a9c:	793b      	ldrb	r3, [r7, #4]
 8001a9e:	3308      	adds	r3, #8
 8001aa0:	b2db      	uxtb	r3, r3
 8001aa2:	e008      	b.n	8001ab6 <getChannelNumber+0x3a>
	if(pin.port == GPIOC) return pin.number + 10;
 8001aa4:	683b      	ldr	r3, [r7, #0]
 8001aa6:	4a08      	ldr	r2, [pc, #32]	@ (8001ac8 <getChannelNumber+0x4c>)
 8001aa8:	4293      	cmp	r3, r2
 8001aaa:	d103      	bne.n	8001ab4 <getChannelNumber+0x38>
 8001aac:	793b      	ldrb	r3, [r7, #4]
 8001aae:	330a      	adds	r3, #10
 8001ab0:	b2db      	uxtb	r3, r3
 8001ab2:	e000      	b.n	8001ab6 <getChannelNumber+0x3a>
	return 0xFF;
 8001ab4:	23ff      	movs	r3, #255	@ 0xff
}
 8001ab6:	4618      	mov	r0, r3
 8001ab8:	370c      	adds	r7, #12
 8001aba:	46bd      	mov	sp, r7
 8001abc:	bc80      	pop	{r7}
 8001abe:	4770      	bx	lr
 8001ac0:	40010800 	.word	0x40010800
 8001ac4:	40010c00 	.word	0x40010c00
 8001ac8:	40011000 	.word	0x40011000

08001acc <ADCInitMulti>:

void ADCInitMulti(Pin_t *pins, uint16_t count, uint8_t need_dma){
 8001acc:	b580      	push	{r7, lr}
 8001ace:	b086      	sub	sp, #24
 8001ad0:	af00      	add	r7, sp, #0
 8001ad2:	6078      	str	r0, [r7, #4]
 8001ad4:	460b      	mov	r3, r1
 8001ad6:	807b      	strh	r3, [r7, #2]
 8001ad8:	4613      	mov	r3, r2
 8001ada:	707b      	strb	r3, [r7, #1]
	RCC->APB2ENR |= RCC_APB2ENR_ADC1EN;
 8001adc:	4b66      	ldr	r3, [pc, #408]	@ (8001c78 <ADCInitMulti+0x1ac>)
 8001ade:	699b      	ldr	r3, [r3, #24]
 8001ae0:	4a65      	ldr	r2, [pc, #404]	@ (8001c78 <ADCInitMulti+0x1ac>)
 8001ae2:	f443 7300 	orr.w	r3, r3, #512	@ 0x200
 8001ae6:	6193      	str	r3, [r2, #24]
	(void)ADC1->SR;
 8001ae8:	4b64      	ldr	r3, [pc, #400]	@ (8001c7c <ADCInitMulti+0x1b0>)
 8001aea:	681b      	ldr	r3, [r3, #0]
	RCC->CFGR &= ~(RCC_CFGR_ADCPRE_Msk);
 8001aec:	4b62      	ldr	r3, [pc, #392]	@ (8001c78 <ADCInitMulti+0x1ac>)
 8001aee:	685b      	ldr	r3, [r3, #4]
 8001af0:	4a61      	ldr	r2, [pc, #388]	@ (8001c78 <ADCInitMulti+0x1ac>)
 8001af2:	f423 4340 	bic.w	r3, r3, #49152	@ 0xc000
 8001af6:	6053      	str	r3, [r2, #4]
	RCC->CFGR |= RCC_CFGR_ADCPRE_1;
 8001af8:	4b5f      	ldr	r3, [pc, #380]	@ (8001c78 <ADCInitMulti+0x1ac>)
 8001afa:	685b      	ldr	r3, [r3, #4]
 8001afc:	4a5e      	ldr	r2, [pc, #376]	@ (8001c78 <ADCInitMulti+0x1ac>)
 8001afe:	f443 4300 	orr.w	r3, r3, #32768	@ 0x8000
 8001b02:	6053      	str	r3, [r2, #4]
	ADC1->SQR1 &= ~(ADC_SQR1_L_Msk);
 8001b04:	4b5d      	ldr	r3, [pc, #372]	@ (8001c7c <ADCInitMulti+0x1b0>)
 8001b06:	6adb      	ldr	r3, [r3, #44]	@ 0x2c
 8001b08:	4a5c      	ldr	r2, [pc, #368]	@ (8001c7c <ADCInitMulti+0x1b0>)
 8001b0a:	f423 0370 	bic.w	r3, r3, #15728640	@ 0xf00000
 8001b0e:	62d3      	str	r3, [r2, #44]	@ 0x2c
	ADC1->SQR1 |= ((count - 1) << ADC_SQR1_L_Pos);
 8001b10:	4b5a      	ldr	r3, [pc, #360]	@ (8001c7c <ADCInitMulti+0x1b0>)
 8001b12:	6ada      	ldr	r2, [r3, #44]	@ 0x2c
 8001b14:	887b      	ldrh	r3, [r7, #2]
 8001b16:	3b01      	subs	r3, #1
 8001b18:	051b      	lsls	r3, r3, #20
 8001b1a:	4958      	ldr	r1, [pc, #352]	@ (8001c7c <ADCInitMulti+0x1b0>)
 8001b1c:	4313      	orrs	r3, r2
 8001b1e:	62cb      	str	r3, [r1, #44]	@ 0x2c
	ADC1->SQR2 = 0;
 8001b20:	4b56      	ldr	r3, [pc, #344]	@ (8001c7c <ADCInitMulti+0x1b0>)
 8001b22:	2200      	movs	r2, #0
 8001b24:	631a      	str	r2, [r3, #48]	@ 0x30
	ADC1->SQR3 = 0;
 8001b26:	4b55      	ldr	r3, [pc, #340]	@ (8001c7c <ADCInitMulti+0x1b0>)
 8001b28:	2200      	movs	r2, #0
 8001b2a:	635a      	str	r2, [r3, #52]	@ 0x34
	for(uint16_t i = 0; i < count; i++){
 8001b2c:	2300      	movs	r3, #0
 8001b2e:	82fb      	strh	r3, [r7, #22]
 8001b30:	e02c      	b.n	8001b8c <ADCInitMulti+0xc0>
		uint8_t channel = getChannelNumber(pins[i]);
 8001b32:	8afb      	ldrh	r3, [r7, #22]
 8001b34:	00db      	lsls	r3, r3, #3
 8001b36:	687a      	ldr	r2, [r7, #4]
 8001b38:	4413      	add	r3, r2
 8001b3a:	e893 0003 	ldmia.w	r3, {r0, r1}
 8001b3e:	f7ff ff9d 	bl	8001a7c <getChannelNumber>
 8001b42:	4603      	mov	r3, r0
 8001b44:	757b      	strb	r3, [r7, #21]
		if(i < 6){
 8001b46:	8afb      	ldrh	r3, [r7, #22]
 8001b48:	2b05      	cmp	r3, #5
 8001b4a:	d80c      	bhi.n	8001b66 <ADCInitMulti+0x9a>
			ADC1->SQR3 |= (channel << (i * 5));
 8001b4c:	4b4b      	ldr	r3, [pc, #300]	@ (8001c7c <ADCInitMulti+0x1b0>)
 8001b4e:	6b59      	ldr	r1, [r3, #52]	@ 0x34
 8001b50:	7d78      	ldrb	r0, [r7, #21]
 8001b52:	8afa      	ldrh	r2, [r7, #22]
 8001b54:	4613      	mov	r3, r2
 8001b56:	009b      	lsls	r3, r3, #2
 8001b58:	4413      	add	r3, r2
 8001b5a:	fa00 f303 	lsl.w	r3, r0, r3
 8001b5e:	4a47      	ldr	r2, [pc, #284]	@ (8001c7c <ADCInitMulti+0x1b0>)
 8001b60:	430b      	orrs	r3, r1
 8001b62:	6353      	str	r3, [r2, #52]	@ 0x34
 8001b64:	e00f      	b.n	8001b86 <ADCInitMulti+0xba>
		}
		else if(i < 12){
 8001b66:	8afb      	ldrh	r3, [r7, #22]
 8001b68:	2b0b      	cmp	r3, #11
 8001b6a:	d80c      	bhi.n	8001b86 <ADCInitMulti+0xba>
			ADC1->SQR2 |= (channel << ((i - 6) * 5));
 8001b6c:	4b43      	ldr	r3, [pc, #268]	@ (8001c7c <ADCInitMulti+0x1b0>)
 8001b6e:	6b19      	ldr	r1, [r3, #48]	@ 0x30
 8001b70:	7d78      	ldrb	r0, [r7, #21]
 8001b72:	8afb      	ldrh	r3, [r7, #22]
 8001b74:	1f9a      	subs	r2, r3, #6
 8001b76:	4613      	mov	r3, r2
 8001b78:	009b      	lsls	r3, r3, #2
 8001b7a:	4413      	add	r3, r2
 8001b7c:	fa00 f303 	lsl.w	r3, r0, r3
 8001b80:	4a3e      	ldr	r2, [pc, #248]	@ (8001c7c <ADCInitMulti+0x1b0>)
 8001b82:	430b      	orrs	r3, r1
 8001b84:	6313      	str	r3, [r2, #48]	@ 0x30
	for(uint16_t i = 0; i < count; i++){
 8001b86:	8afb      	ldrh	r3, [r7, #22]
 8001b88:	3301      	adds	r3, #1
 8001b8a:	82fb      	strh	r3, [r7, #22]
 8001b8c:	8afa      	ldrh	r2, [r7, #22]
 8001b8e:	887b      	ldrh	r3, [r7, #2]
 8001b90:	429a      	cmp	r2, r3
 8001b92:	d3ce      	bcc.n	8001b32 <ADCInitMulti+0x66>
		}

	}
	ADC1->SMPR2 |= 0xFFFFFFFF;
 8001b94:	4b39      	ldr	r3, [pc, #228]	@ (8001c7c <ADCInitMulti+0x1b0>)
 8001b96:	691b      	ldr	r3, [r3, #16]
 8001b98:	4b38      	ldr	r3, [pc, #224]	@ (8001c7c <ADCInitMulti+0x1b0>)
 8001b9a:	f04f 32ff 	mov.w	r2, #4294967295
 8001b9e:	611a      	str	r2, [r3, #16]
	ADC1->SMPR1 |= 0xFFFFFFFF;
 8001ba0:	4b36      	ldr	r3, [pc, #216]	@ (8001c7c <ADCInitMulti+0x1b0>)
 8001ba2:	68db      	ldr	r3, [r3, #12]
 8001ba4:	4b35      	ldr	r3, [pc, #212]	@ (8001c7c <ADCInitMulti+0x1b0>)
 8001ba6:	f04f 32ff 	mov.w	r2, #4294967295
 8001baa:	60da      	str	r2, [r3, #12]
	ADC1->CR1 |= ADC_CR1_SCAN;
 8001bac:	4b33      	ldr	r3, [pc, #204]	@ (8001c7c <ADCInitMulti+0x1b0>)
 8001bae:	685b      	ldr	r3, [r3, #4]
 8001bb0:	4a32      	ldr	r2, [pc, #200]	@ (8001c7c <ADCInitMulti+0x1b0>)
 8001bb2:	f443 7380 	orr.w	r3, r3, #256	@ 0x100
 8001bb6:	6053      	str	r3, [r2, #4]
	ADC1->CR2 |= ADC_CR2_CONT | ADC_CR2_ADON;
 8001bb8:	4b30      	ldr	r3, [pc, #192]	@ (8001c7c <ADCInitMulti+0x1b0>)
 8001bba:	689b      	ldr	r3, [r3, #8]
 8001bbc:	4a2f      	ldr	r2, [pc, #188]	@ (8001c7c <ADCInitMulti+0x1b0>)
 8001bbe:	f043 0303 	orr.w	r3, r3, #3
 8001bc2:	6093      	str	r3, [r2, #8]
	ADC1->CR2 &= ~ADC_CR2_ADON;
 8001bc4:	4b2d      	ldr	r3, [pc, #180]	@ (8001c7c <ADCInitMulti+0x1b0>)
 8001bc6:	689b      	ldr	r3, [r3, #8]
 8001bc8:	4a2c      	ldr	r2, [pc, #176]	@ (8001c7c <ADCInitMulti+0x1b0>)
 8001bca:	f023 0301 	bic.w	r3, r3, #1
 8001bce:	6093      	str	r3, [r2, #8]
	for (volatile int i = 0; i < 100; i++);
 8001bd0:	2300      	movs	r3, #0
 8001bd2:	613b      	str	r3, [r7, #16]
 8001bd4:	e002      	b.n	8001bdc <ADCInitMulti+0x110>
 8001bd6:	693b      	ldr	r3, [r7, #16]
 8001bd8:	3301      	adds	r3, #1
 8001bda:	613b      	str	r3, [r7, #16]
 8001bdc:	693b      	ldr	r3, [r7, #16]
 8001bde:	2b63      	cmp	r3, #99	@ 0x63
 8001be0:	ddf9      	ble.n	8001bd6 <ADCInitMulti+0x10a>
	ADC1->CR2 |= ADC_CR2_ADON;
 8001be2:	4b26      	ldr	r3, [pc, #152]	@ (8001c7c <ADCInitMulti+0x1b0>)
 8001be4:	689b      	ldr	r3, [r3, #8]
 8001be6:	4a25      	ldr	r2, [pc, #148]	@ (8001c7c <ADCInitMulti+0x1b0>)
 8001be8:	f043 0301 	orr.w	r3, r3, #1
 8001bec:	6093      	str	r3, [r2, #8]
	for (volatile int i = 0; i < 1000; i++);
 8001bee:	2300      	movs	r3, #0
 8001bf0:	60fb      	str	r3, [r7, #12]
 8001bf2:	e002      	b.n	8001bfa <ADCInitMulti+0x12e>
 8001bf4:	68fb      	ldr	r3, [r7, #12]
 8001bf6:	3301      	adds	r3, #1
 8001bf8:	60fb      	str	r3, [r7, #12]
 8001bfa:	68fb      	ldr	r3, [r7, #12]
 8001bfc:	f5b3 7f7a 	cmp.w	r3, #1000	@ 0x3e8
 8001c00:	dbf8      	blt.n	8001bf4 <ADCInitMulti+0x128>


	ADC1->CR2 |= ADC_CR2_RSTCAL;
 8001c02:	4b1e      	ldr	r3, [pc, #120]	@ (8001c7c <ADCInitMulti+0x1b0>)
 8001c04:	689b      	ldr	r3, [r3, #8]
 8001c06:	4a1d      	ldr	r2, [pc, #116]	@ (8001c7c <ADCInitMulti+0x1b0>)
 8001c08:	f043 0308 	orr.w	r3, r3, #8
 8001c0c:	6093      	str	r3, [r2, #8]
	while(ADC1->CR2 & ADC_CR2_RSTCAL);
 8001c0e:	bf00      	nop
 8001c10:	4b1a      	ldr	r3, [pc, #104]	@ (8001c7c <ADCInitMulti+0x1b0>)
 8001c12:	689b      	ldr	r3, [r3, #8]
 8001c14:	f003 0308 	and.w	r3, r3, #8
 8001c18:	2b00      	cmp	r3, #0
 8001c1a:	d1f9      	bne.n	8001c10 <ADCInitMulti+0x144>
	ADC1->CR2 |= ADC_CR2_CAL;
 8001c1c:	4b17      	ldr	r3, [pc, #92]	@ (8001c7c <ADCInitMulti+0x1b0>)
 8001c1e:	689b      	ldr	r3, [r3, #8]
 8001c20:	4a16      	ldr	r2, [pc, #88]	@ (8001c7c <ADCInitMulti+0x1b0>)
 8001c22:	f043 0304 	orr.w	r3, r3, #4
 8001c26:	6093      	str	r3, [r2, #8]
	while(ADC1->CR2 & ADC_CR2_CAL);
 8001c28:	bf00      	nop
 8001c2a:	4b14      	ldr	r3, [pc, #80]	@ (8001c7c <ADCInitMulti+0x1b0>)
 8001c2c:	689b      	ldr	r3, [r3, #8]
 8001c2e:	f003 0304 	and.w	r3, r3, #4
 8001c32:	2b00      	cmp	r3, #0
 8001c34:	d1f9      	bne.n	8001c2a <ADCInitMulti+0x15e>
	ADC1->CR2 |= (0b111 << 17) | ADC_CR2_EXTTRIG;
 8001c36:	4b11      	ldr	r3, [pc, #68]	@ (8001c7c <ADCInitMulti+0x1b0>)
 8001c38:	689b      	ldr	r3, [r3, #8]
 8001c3a:	4a10      	ldr	r2, [pc, #64]	@ (8001c7c <ADCInitMulti+0x1b0>)
 8001c3c:	f443 13f0 	orr.w	r3, r3, #1966080	@ 0x1e0000
 8001c40:	6093      	str	r3, [r2, #8]
	if(need_dma){
 8001c42:	787b      	ldrb	r3, [r7, #1]
 8001c44:	2b00      	cmp	r3, #0
 8001c46:	d006      	beq.n	8001c56 <ADCInitMulti+0x18a>
			ADC1->CR2 |= ADC_CR2_DMA;
 8001c48:	4b0c      	ldr	r3, [pc, #48]	@ (8001c7c <ADCInitMulti+0x1b0>)
 8001c4a:	689b      	ldr	r3, [r3, #8]
 8001c4c:	4a0b      	ldr	r2, [pc, #44]	@ (8001c7c <ADCInitMulti+0x1b0>)
 8001c4e:	f443 7380 	orr.w	r3, r3, #256	@ 0x100
 8001c52:	6093      	str	r3, [r2, #8]
 8001c54:	e005      	b.n	8001c62 <ADCInitMulti+0x196>
	}
	else{
		ADC1->CR2 &= ~ADC_CR2_DMA;
 8001c56:	4b09      	ldr	r3, [pc, #36]	@ (8001c7c <ADCInitMulti+0x1b0>)
 8001c58:	689b      	ldr	r3, [r3, #8]
 8001c5a:	4a08      	ldr	r2, [pc, #32]	@ (8001c7c <ADCInitMulti+0x1b0>)
 8001c5c:	f423 7380 	bic.w	r3, r3, #256	@ 0x100
 8001c60:	6093      	str	r3, [r2, #8]
	}
	ADC1->CR2 |= ADC_CR2_SWSTART;
 8001c62:	4b06      	ldr	r3, [pc, #24]	@ (8001c7c <ADCInitMulti+0x1b0>)
 8001c64:	689b      	ldr	r3, [r3, #8]
 8001c66:	4a05      	ldr	r2, [pc, #20]	@ (8001c7c <ADCInitMulti+0x1b0>)
 8001c68:	f443 0380 	orr.w	r3, r3, #4194304	@ 0x400000
 8001c6c:	6093      	str	r3, [r2, #8]
}
 8001c6e:	bf00      	nop
 8001c70:	3718      	adds	r7, #24
 8001c72:	46bd      	mov	sp, r7
 8001c74:	bd80      	pop	{r7, pc}
 8001c76:	bf00      	nop
 8001c78:	40021000 	.word	0x40021000
 8001c7c:	40012400 	.word	0x40012400

08001c80 <DMAInit>:
#include "../inc/dma.h"

void DMAInit(DMA_Channel_TypeDef *DMAx, uint32_t peripheral_addr, uint32_t memory_addr, uint16_t data_count){
 8001c80:	b480      	push	{r7}
 8001c82:	b085      	sub	sp, #20
 8001c84:	af00      	add	r7, sp, #0
 8001c86:	60f8      	str	r0, [r7, #12]
 8001c88:	60b9      	str	r1, [r7, #8]
 8001c8a:	607a      	str	r2, [r7, #4]
 8001c8c:	807b      	strh	r3, [r7, #2]
	RCC->AHBENR |= RCC_AHBENR_DMA1EN;
 8001c8e:	4b14      	ldr	r3, [pc, #80]	@ (8001ce0 <DMAInit+0x60>)
 8001c90:	695b      	ldr	r3, [r3, #20]
 8001c92:	4a13      	ldr	r2, [pc, #76]	@ (8001ce0 <DMAInit+0x60>)
 8001c94:	f043 0301 	orr.w	r3, r3, #1
 8001c98:	6153      	str	r3, [r2, #20]
	DMAx->CCR &= ~DMA_CCR_EN;
 8001c9a:	68fb      	ldr	r3, [r7, #12]
 8001c9c:	681b      	ldr	r3, [r3, #0]
 8001c9e:	f023 0201 	bic.w	r2, r3, #1
 8001ca2:	68fb      	ldr	r3, [r7, #12]
 8001ca4:	601a      	str	r2, [r3, #0]
	DMAx->CCR = 0;
 8001ca6:	68fb      	ldr	r3, [r7, #12]
 8001ca8:	2200      	movs	r2, #0
 8001caa:	601a      	str	r2, [r3, #0]
	DMAx->CCR |= DMA_CCR_MINC | DMA_CCR_CIRC | DMA_CCR_MSIZE_0 | DMA_CCR_PSIZE_0;
 8001cac:	68fb      	ldr	r3, [r7, #12]
 8001cae:	681b      	ldr	r3, [r3, #0]
 8001cb0:	f443 62b4 	orr.w	r2, r3, #1440	@ 0x5a0
 8001cb4:	68fb      	ldr	r3, [r7, #12]
 8001cb6:	601a      	str	r2, [r3, #0]

	DMAx->CPAR = peripheral_addr;
 8001cb8:	68fb      	ldr	r3, [r7, #12]
 8001cba:	68ba      	ldr	r2, [r7, #8]
 8001cbc:	609a      	str	r2, [r3, #8]
	DMAx->CMAR = memory_addr;
 8001cbe:	68fb      	ldr	r3, [r7, #12]
 8001cc0:	687a      	ldr	r2, [r7, #4]
 8001cc2:	60da      	str	r2, [r3, #12]
	DMAx->CNDTR = data_count;
 8001cc4:	887a      	ldrh	r2, [r7, #2]
 8001cc6:	68fb      	ldr	r3, [r7, #12]
 8001cc8:	605a      	str	r2, [r3, #4]

	DMAx->CCR |= DMA_CCR_EN;
 8001cca:	68fb      	ldr	r3, [r7, #12]
 8001ccc:	681b      	ldr	r3, [r3, #0]
 8001cce:	f043 0201 	orr.w	r2, r3, #1
 8001cd2:	68fb      	ldr	r3, [r7, #12]
 8001cd4:	601a      	str	r2, [r3, #0]

}
 8001cd6:	bf00      	nop
 8001cd8:	3714      	adds	r7, #20
 8001cda:	46bd      	mov	sp, r7
 8001cdc:	bc80      	pop	{r7}
 8001cde:	4770      	bx	lr
 8001ce0:	40021000 	.word	0x40021000

08001ce4 <__NVIC_EnableIRQ>:
  \details Enables a device specific interrupt in the NVIC interrupt controller.
  \param [in]      IRQn  Device specific interrupt number.
  \note    IRQn must not be negative.
 */
__STATIC_INLINE void __NVIC_EnableIRQ(IRQn_Type IRQn)
{
 8001ce4:	b480      	push	{r7}
 8001ce6:	b083      	sub	sp, #12
 8001ce8:	af00      	add	r7, sp, #0
 8001cea:	4603      	mov	r3, r0
 8001cec:	71fb      	strb	r3, [r7, #7]
  if ((int32_t)(IRQn) >= 0)
 8001cee:	f997 3007 	ldrsb.w	r3, [r7, #7]
 8001cf2:	2b00      	cmp	r3, #0
 8001cf4:	db0b      	blt.n	8001d0e <__NVIC_EnableIRQ+0x2a>
  {
    NVIC->ISER[(((uint32_t)IRQn) >> 5UL)] = (uint32_t)(1UL << (((uint32_t)IRQn) & 0x1FUL));
 8001cf6:	79fb      	ldrb	r3, [r7, #7]
 8001cf8:	f003 021f 	and.w	r2, r3, #31
 8001cfc:	4906      	ldr	r1, [pc, #24]	@ (8001d18 <__NVIC_EnableIRQ+0x34>)
 8001cfe:	f997 3007 	ldrsb.w	r3, [r7, #7]
 8001d02:	095b      	lsrs	r3, r3, #5
 8001d04:	2001      	movs	r0, #1
 8001d06:	fa00 f202 	lsl.w	r2, r0, r2
 8001d0a:	f841 2023 	str.w	r2, [r1, r3, lsl #2]
  }
}
 8001d0e:	bf00      	nop
 8001d10:	370c      	adds	r7, #12
 8001d12:	46bd      	mov	sp, r7
 8001d14:	bc80      	pop	{r7}
 8001d16:	4770      	bx	lr
 8001d18:	e000e100 	.word	0xe000e100

08001d1c <extiInit>:
#include "../inc/exti.h"
static ExtiHandler_t exti_handlers[16] = {NULL};


void extiInit(Pin_t pin, ExtiEdge edge){
 8001d1c:	b580      	push	{r7, lr}
 8001d1e:	b086      	sub	sp, #24
 8001d20:	af00      	add	r7, sp, #0
 8001d22:	f107 0308 	add.w	r3, r7, #8
 8001d26:	e883 0003 	stmia.w	r3, {r0, r1}
 8001d2a:	4613      	mov	r3, r2
 8001d2c:	71fb      	strb	r3, [r7, #7]
	GPIO_TypeDef *GPIOx = pin.port;
 8001d2e:	68bb      	ldr	r3, [r7, #8]
 8001d30:	617b      	str	r3, [r7, #20]
	uint8_t pin_number = pin.number;
 8001d32:	7b3b      	ldrb	r3, [r7, #12]
 8001d34:	74fb      	strb	r3, [r7, #19]
	RCC->APB2ENR |= RCC_APB2ENR_AFIOEN;
 8001d36:	4b45      	ldr	r3, [pc, #276]	@ (8001e4c <extiInit+0x130>)
 8001d38:	699b      	ldr	r3, [r3, #24]
 8001d3a:	4a44      	ldr	r2, [pc, #272]	@ (8001e4c <extiInit+0x130>)
 8001d3c:	f043 0301 	orr.w	r3, r3, #1
 8001d40:	6193      	str	r3, [r2, #24]
	uint8_t index = pin_number/4;
 8001d42:	7cfb      	ldrb	r3, [r7, #19]
 8001d44:	089b      	lsrs	r3, r3, #2
 8001d46:	74bb      	strb	r3, [r7, #18]
	uint8_t offset = (pin_number%4)*4;
 8001d48:	7cfb      	ldrb	r3, [r7, #19]
 8001d4a:	f003 0303 	and.w	r3, r3, #3
 8001d4e:	b2db      	uxtb	r3, r3
 8001d50:	009b      	lsls	r3, r3, #2
 8001d52:	747b      	strb	r3, [r7, #17]
	AFIO->EXTICR[index] &= ~(0xF << offset);
 8001d54:	4a3e      	ldr	r2, [pc, #248]	@ (8001e50 <extiInit+0x134>)
 8001d56:	7cbb      	ldrb	r3, [r7, #18]
 8001d58:	3302      	adds	r3, #2
 8001d5a:	f852 2023 	ldr.w	r2, [r2, r3, lsl #2]
 8001d5e:	7c7b      	ldrb	r3, [r7, #17]
 8001d60:	210f      	movs	r1, #15
 8001d62:	fa01 f303 	lsl.w	r3, r1, r3
 8001d66:	43db      	mvns	r3, r3
 8001d68:	4618      	mov	r0, r3
 8001d6a:	4939      	ldr	r1, [pc, #228]	@ (8001e50 <extiInit+0x134>)
 8001d6c:	7cbb      	ldrb	r3, [r7, #18]
 8001d6e:	4002      	ands	r2, r0
 8001d70:	3302      	adds	r3, #2
 8001d72:	f841 2023 	str.w	r2, [r1, r3, lsl #2]
	AFIO->EXTICR[index] |= (gpioPortIndex(GPIOx) << offset);
 8001d76:	6978      	ldr	r0, [r7, #20]
 8001d78:	f000 f96c 	bl	8002054 <gpioPortIndex>
 8001d7c:	4603      	mov	r3, r0
 8001d7e:	461a      	mov	r2, r3
 8001d80:	7c7b      	ldrb	r3, [r7, #17]
 8001d82:	fa02 f103 	lsl.w	r1, r2, r3
 8001d86:	4a32      	ldr	r2, [pc, #200]	@ (8001e50 <extiInit+0x134>)
 8001d88:	7cbb      	ldrb	r3, [r7, #18]
 8001d8a:	3302      	adds	r3, #2
 8001d8c:	f852 2023 	ldr.w	r2, [r2, r3, lsl #2]
 8001d90:	4608      	mov	r0, r1
 8001d92:	492f      	ldr	r1, [pc, #188]	@ (8001e50 <extiInit+0x134>)
 8001d94:	7cbb      	ldrb	r3, [r7, #18]
 8001d96:	4302      	orrs	r2, r0
 8001d98:	3302      	adds	r3, #2
 8001d9a:	f841 2023 	str.w	r2, [r1, r3, lsl #2]

	EXTI->IMR |= (1 << pin_number);
 8001d9e:	4b2d      	ldr	r3, [pc, #180]	@ (8001e54 <extiInit+0x138>)
 8001da0:	681b      	ldr	r3, [r3, #0]
 8001da2:	7cfa      	ldrb	r2, [r7, #19]
 8001da4:	2101      	movs	r1, #1
 8001da6:	fa01 f202 	lsl.w	r2, r1, r2
 8001daa:	4611      	mov	r1, r2
 8001dac:	4a29      	ldr	r2, [pc, #164]	@ (8001e54 <extiInit+0x138>)
 8001dae:	430b      	orrs	r3, r1
 8001db0:	6013      	str	r3, [r2, #0]
	if(edge == EXTI_RISING_EDGE){
 8001db2:	79fb      	ldrb	r3, [r7, #7]
 8001db4:	2b00      	cmp	r3, #0
 8001db6:	d10a      	bne.n	8001dce <extiInit+0xb2>
		EXTI->RTSR |= (1 << pin_number);
 8001db8:	4b26      	ldr	r3, [pc, #152]	@ (8001e54 <extiInit+0x138>)
 8001dba:	689b      	ldr	r3, [r3, #8]
 8001dbc:	7cfa      	ldrb	r2, [r7, #19]
 8001dbe:	2101      	movs	r1, #1
 8001dc0:	fa01 f202 	lsl.w	r2, r1, r2
 8001dc4:	4611      	mov	r1, r2
 8001dc6:	4a23      	ldr	r2, [pc, #140]	@ (8001e54 <extiInit+0x138>)
 8001dc8:	430b      	orrs	r3, r1
 8001dca:	6093      	str	r3, [r2, #8]
 8001dcc:	e024      	b.n	8001e18 <extiInit+0xfc>
	}
	else if(edge == EXTI_FALLING_EDGE){
 8001dce:	79fb      	ldrb	r3, [r7, #7]
 8001dd0:	2b01      	cmp	r3, #1
 8001dd2:	d10a      	bne.n	8001dea <extiInit+0xce>
		EXTI->FTSR |= (1 << pin_number);
 8001dd4:	4b1f      	ldr	r3, [pc, #124]	@ (8001e54 <extiInit+0x138>)
 8001dd6:	68db      	ldr	r3, [r3, #12]
 8001dd8:	7cfa      	ldrb	r2, [r7, #19]
 8001dda:	2101      	movs	r1, #1
 8001ddc:	fa01 f202 	lsl.w	r2, r1, r2
 8001de0:	4611      	mov	r1, r2
 8001de2:	4a1c      	ldr	r2, [pc, #112]	@ (8001e54 <extiInit+0x138>)
 8001de4:	430b      	orrs	r3, r1
 8001de6:	60d3      	str	r3, [r2, #12]
 8001de8:	e016      	b.n	8001e18 <extiInit+0xfc>
	}
	else if(edge == EXTI_BOTH_EDGES){
 8001dea:	79fb      	ldrb	r3, [r7, #7]
 8001dec:	2b02      	cmp	r3, #2
 8001dee:	d113      	bne.n	8001e18 <extiInit+0xfc>
		EXTI->RTSR |= (1 << pin_number);
 8001df0:	4b18      	ldr	r3, [pc, #96]	@ (8001e54 <extiInit+0x138>)
 8001df2:	689b      	ldr	r3, [r3, #8]
 8001df4:	7cfa      	ldrb	r2, [r7, #19]
 8001df6:	2101      	movs	r1, #1
 8001df8:	fa01 f202 	lsl.w	r2, r1, r2
 8001dfc:	4611      	mov	r1, r2
 8001dfe:	4a15      	ldr	r2, [pc, #84]	@ (8001e54 <extiInit+0x138>)
 8001e00:	430b      	orrs	r3, r1
 8001e02:	6093      	str	r3, [r2, #8]
		EXTI->FTSR |= (1 << pin_number);
 8001e04:	4b13      	ldr	r3, [pc, #76]	@ (8001e54 <extiInit+0x138>)
 8001e06:	68db      	ldr	r3, [r3, #12]
 8001e08:	7cfa      	ldrb	r2, [r7, #19]
 8001e0a:	2101      	movs	r1, #1
 8001e0c:	fa01 f202 	lsl.w	r2, r1, r2
 8001e10:	4611      	mov	r1, r2
 8001e12:	4a10      	ldr	r2, [pc, #64]	@ (8001e54 <extiInit+0x138>)
 8001e14:	430b      	orrs	r3, r1
 8001e16:	60d3      	str	r3, [r2, #12]
	}

	if(pin_number <= 4){
 8001e18:	7cfb      	ldrb	r3, [r7, #19]
 8001e1a:	2b04      	cmp	r3, #4
 8001e1c:	d807      	bhi.n	8001e2e <extiInit+0x112>
		NVIC_EnableIRQ(EXTI0_IRQn + pin_number);
 8001e1e:	7cfb      	ldrb	r3, [r7, #19]
 8001e20:	3306      	adds	r3, #6
 8001e22:	b2db      	uxtb	r3, r3
 8001e24:	b25b      	sxtb	r3, r3
 8001e26:	4618      	mov	r0, r3
 8001e28:	f7ff ff5c 	bl	8001ce4 <__NVIC_EnableIRQ>
		NVIC_EnableIRQ(EXTI9_5_IRQn);
	}
	else{
		NVIC_EnableIRQ(EXTI15_10_IRQn);
	}
}
 8001e2c:	e009      	b.n	8001e42 <extiInit+0x126>
	else if(pin_number <= 9){
 8001e2e:	7cfb      	ldrb	r3, [r7, #19]
 8001e30:	2b09      	cmp	r3, #9
 8001e32:	d803      	bhi.n	8001e3c <extiInit+0x120>
		NVIC_EnableIRQ(EXTI9_5_IRQn);
 8001e34:	2017      	movs	r0, #23
 8001e36:	f7ff ff55 	bl	8001ce4 <__NVIC_EnableIRQ>
}
 8001e3a:	e002      	b.n	8001e42 <extiInit+0x126>
		NVIC_EnableIRQ(EXTI15_10_IRQn);
 8001e3c:	2028      	movs	r0, #40	@ 0x28
 8001e3e:	f7ff ff51 	bl	8001ce4 <__NVIC_EnableIRQ>
}
 8001e42:	bf00      	nop
 8001e44:	3718      	adds	r7, #24
 8001e46:	46bd      	mov	sp, r7
 8001e48:	bd80      	pop	{r7, pc}
 8001e4a:	bf00      	nop
 8001e4c:	40021000 	.word	0x40021000
 8001e50:	40010000 	.word	0x40010000
 8001e54:	40010400 	.word	0x40010400

08001e58 <extiRegisterHandler>:
	EXTI->PR |= (1 << pin_number);
}

// HANDLER

void extiRegisterHandler(Pin_t pin, ExtiHandler_t handler){
 8001e58:	b480      	push	{r7}
 8001e5a:	b087      	sub	sp, #28
 8001e5c:	af00      	add	r7, sp, #0
 8001e5e:	f107 0308 	add.w	r3, r7, #8
 8001e62:	e883 0003 	stmia.w	r3, {r0, r1}
 8001e66:	607a      	str	r2, [r7, #4]
	uint8_t pin_number = pin.number;
 8001e68:	7b3b      	ldrb	r3, [r7, #12]
 8001e6a:	75fb      	strb	r3, [r7, #23]
	if(pin_number < 16){
 8001e6c:	7dfb      	ldrb	r3, [r7, #23]
 8001e6e:	2b0f      	cmp	r3, #15
 8001e70:	d804      	bhi.n	8001e7c <extiRegisterHandler+0x24>
		exti_handlers[pin_number] = handler;
 8001e72:	7dfb      	ldrb	r3, [r7, #23]
 8001e74:	4904      	ldr	r1, [pc, #16]	@ (8001e88 <extiRegisterHandler+0x30>)
 8001e76:	687a      	ldr	r2, [r7, #4]
 8001e78:	f841 2023 	str.w	r2, [r1, r3, lsl #2]
	}
}
 8001e7c:	bf00      	nop
 8001e7e:	371c      	adds	r7, #28
 8001e80:	46bd      	mov	sp, r7
 8001e82:	bc80      	pop	{r7}
 8001e84:	4770      	bx	lr
 8001e86:	bf00      	nop
 8001e88:	200001a8 	.word	0x200001a8

08001e8c <extiGroupDispatch>:


static void extiGroupDispatch(uint8_t start_number, uint8_t end_number){
 8001e8c:	b580      	push	{r7, lr}
 8001e8e:	b084      	sub	sp, #16
 8001e90:	af00      	add	r7, sp, #0
 8001e92:	4603      	mov	r3, r0
 8001e94:	460a      	mov	r2, r1
 8001e96:	71fb      	strb	r3, [r7, #7]
 8001e98:	4613      	mov	r3, r2
 8001e9a:	71bb      	strb	r3, [r7, #6]
	for(uint8_t number = start_number; number <= end_number; number++){
 8001e9c:	79fb      	ldrb	r3, [r7, #7]
 8001e9e:	73fb      	strb	r3, [r7, #15]
 8001ea0:	e024      	b.n	8001eec <extiGroupDispatch+0x60>
		if((EXTI->PR & (1 << number)) && (EXTI->IMR & (1 << number))){
 8001ea2:	4b17      	ldr	r3, [pc, #92]	@ (8001f00 <extiGroupDispatch+0x74>)
 8001ea4:	695b      	ldr	r3, [r3, #20]
 8001ea6:	7bfa      	ldrb	r2, [r7, #15]
 8001ea8:	2101      	movs	r1, #1
 8001eaa:	fa01 f202 	lsl.w	r2, r1, r2
 8001eae:	4013      	ands	r3, r2
 8001eb0:	2b00      	cmp	r3, #0
 8001eb2:	d018      	beq.n	8001ee6 <extiGroupDispatch+0x5a>
 8001eb4:	4b12      	ldr	r3, [pc, #72]	@ (8001f00 <extiGroupDispatch+0x74>)
 8001eb6:	681b      	ldr	r3, [r3, #0]
 8001eb8:	7bfa      	ldrb	r2, [r7, #15]
 8001eba:	2101      	movs	r1, #1
 8001ebc:	fa01 f202 	lsl.w	r2, r1, r2
 8001ec0:	4013      	ands	r3, r2
 8001ec2:	2b00      	cmp	r3, #0
 8001ec4:	d00f      	beq.n	8001ee6 <extiGroupDispatch+0x5a>
			if(exti_handlers[number] != NULL){
 8001ec6:	7bfb      	ldrb	r3, [r7, #15]
 8001ec8:	4a0e      	ldr	r2, [pc, #56]	@ (8001f04 <extiGroupDispatch+0x78>)
 8001eca:	f852 3023 	ldr.w	r3, [r2, r3, lsl #2]
 8001ece:	2b00      	cmp	r3, #0
 8001ed0:	d004      	beq.n	8001edc <extiGroupDispatch+0x50>
				exti_handlers[number]();
 8001ed2:	7bfb      	ldrb	r3, [r7, #15]
 8001ed4:	4a0b      	ldr	r2, [pc, #44]	@ (8001f04 <extiGroupDispatch+0x78>)
 8001ed6:	f852 3023 	ldr.w	r3, [r2, r3, lsl #2]
 8001eda:	4798      	blx	r3
			}
			EXTI->PR = (1 << number);
 8001edc:	7bfb      	ldrb	r3, [r7, #15]
 8001ede:	2201      	movs	r2, #1
 8001ee0:	409a      	lsls	r2, r3
 8001ee2:	4b07      	ldr	r3, [pc, #28]	@ (8001f00 <extiGroupDispatch+0x74>)
 8001ee4:	615a      	str	r2, [r3, #20]
	for(uint8_t number = start_number; number <= end_number; number++){
 8001ee6:	7bfb      	ldrb	r3, [r7, #15]
 8001ee8:	3301      	adds	r3, #1
 8001eea:	73fb      	strb	r3, [r7, #15]
 8001eec:	7bfa      	ldrb	r2, [r7, #15]
 8001eee:	79bb      	ldrb	r3, [r7, #6]
 8001ef0:	429a      	cmp	r2, r3
 8001ef2:	d9d6      	bls.n	8001ea2 <extiGroupDispatch+0x16>
		}
	}
}
 8001ef4:	bf00      	nop
 8001ef6:	bf00      	nop
 8001ef8:	3710      	adds	r7, #16
 8001efa:	46bd      	mov	sp, r7
 8001efc:	bd80      	pop	{r7, pc}
 8001efe:	bf00      	nop
 8001f00:	40010400 	.word	0x40010400
 8001f04:	200001a8 	.word	0x200001a8

08001f08 <EXTI0_IRQHandler>:


void EXTI0_IRQHandler(void){
 8001f08:	b580      	push	{r7, lr}
 8001f0a:	af00      	add	r7, sp, #0
	extiGroupDispatch(0, 0);
 8001f0c:	2100      	movs	r1, #0
 8001f0e:	2000      	movs	r0, #0
 8001f10:	f7ff ffbc 	bl	8001e8c <extiGroupDispatch>
	if(EXTI0_User_Handler) EXTI0_User_Handler();
 8001f14:	4b03      	ldr	r3, [pc, #12]	@ (8001f24 <EXTI0_IRQHandler+0x1c>)
 8001f16:	2b00      	cmp	r3, #0
 8001f18:	d001      	beq.n	8001f1e <EXTI0_IRQHandler+0x16>
 8001f1a:	f3af 8000 	nop.w
}
 8001f1e:	bf00      	nop
 8001f20:	bd80      	pop	{r7, pc}
 8001f22:	bf00      	nop
 8001f24:	00000000 	.word	0x00000000

08001f28 <EXTI1_IRQHandler>:


void EXTI1_IRQHandler(void){
 8001f28:	b580      	push	{r7, lr}
 8001f2a:	af00      	add	r7, sp, #0
	extiGroupDispatch(1, 1);
 8001f2c:	2101      	movs	r1, #1
 8001f2e:	2001      	movs	r0, #1
 8001f30:	f7ff ffac 	bl	8001e8c <extiGroupDispatch>
	if(EXTI1_User_Handler) EXTI1_User_Handler();
 8001f34:	4b03      	ldr	r3, [pc, #12]	@ (8001f44 <EXTI1_IRQHandler+0x1c>)
 8001f36:	2b00      	cmp	r3, #0
 8001f38:	d001      	beq.n	8001f3e <EXTI1_IRQHandler+0x16>
 8001f3a:	f3af 8000 	nop.w
}
 8001f3e:	bf00      	nop
 8001f40:	bd80      	pop	{r7, pc}
 8001f42:	bf00      	nop
 8001f44:	00000000 	.word	0x00000000

08001f48 <EXTI2_IRQHandler>:


void EXTI2_IRQHandler(void){
 8001f48:	b580      	push	{r7, lr}
 8001f4a:	af00      	add	r7, sp, #0
	extiGroupDispatch(2, 2);
 8001f4c:	2102      	movs	r1, #2
 8001f4e:	2002      	movs	r0, #2
 8001f50:	f7ff ff9c 	bl	8001e8c <extiGroupDispatch>
	if(EXTI2_User_Handler) EXTI2_User_Handler();
 8001f54:	4b03      	ldr	r3, [pc, #12]	@ (8001f64 <EXTI2_IRQHandler+0x1c>)
 8001f56:	2b00      	cmp	r3, #0
 8001f58:	d001      	beq.n	8001f5e <EXTI2_IRQHandler+0x16>
 8001f5a:	f3af 8000 	nop.w
}
 8001f5e:	bf00      	nop
 8001f60:	bd80      	pop	{r7, pc}
 8001f62:	bf00      	nop
 8001f64:	00000000 	.word	0x00000000

08001f68 <EXTI3_IRQHandler>:


void EXTI3_IRQHandler(void){
 8001f68:	b580      	push	{r7, lr}
 8001f6a:	af00      	add	r7, sp, #0
	extiGroupDispatch(3, 3);
 8001f6c:	2103      	movs	r1, #3
 8001f6e:	2003      	movs	r0, #3
 8001f70:	f7ff ff8c 	bl	8001e8c <extiGroupDispatch>
	if(EXTI3_User_Handler) EXTI3_User_Handler();
 8001f74:	4b03      	ldr	r3, [pc, #12]	@ (8001f84 <EXTI3_IRQHandler+0x1c>)
 8001f76:	2b00      	cmp	r3, #0
 8001f78:	d001      	beq.n	8001f7e <EXTI3_IRQHandler+0x16>
 8001f7a:	f3af 8000 	nop.w
}
 8001f7e:	bf00      	nop
 8001f80:	bd80      	pop	{r7, pc}
 8001f82:	bf00      	nop
 8001f84:	00000000 	.word	0x00000000

08001f88 <EXTI4_IRQHandler>:


 void EXTI4_IRQHandler(void){
 8001f88:	b580      	push	{r7, lr}
 8001f8a:	af00      	add	r7, sp, #0
	extiGroupDispatch(4, 4);
 8001f8c:	2104      	movs	r1, #4
 8001f8e:	2004      	movs	r0, #4
 8001f90:	f7ff ff7c 	bl	8001e8c <extiGroupDispatch>
	if(EXTI4_User_Handler) EXTI4_User_Handler();
 8001f94:	4b03      	ldr	r3, [pc, #12]	@ (8001fa4 <EXTI4_IRQHandler+0x1c>)
 8001f96:	2b00      	cmp	r3, #0
 8001f98:	d001      	beq.n	8001f9e <EXTI4_IRQHandler+0x16>
 8001f9a:	f3af 8000 	nop.w
}
 8001f9e:	bf00      	nop
 8001fa0:	bd80      	pop	{r7, pc}
 8001fa2:	bf00      	nop
 8001fa4:	00000000 	.word	0x00000000

08001fa8 <EXTI9_5_IRQHandler>:


void EXTI9_5_IRQHandler(void){
 8001fa8:	b580      	push	{r7, lr}
 8001faa:	af00      	add	r7, sp, #0
	extiGroupDispatch(5, 9);
 8001fac:	2109      	movs	r1, #9
 8001fae:	2005      	movs	r0, #5
 8001fb0:	f7ff ff6c 	bl	8001e8c <extiGroupDispatch>
	if(EXTI9_5_User_Handler) EXTI9_5_User_Handler();
 8001fb4:	4b03      	ldr	r3, [pc, #12]	@ (8001fc4 <EXTI9_5_IRQHandler+0x1c>)
 8001fb6:	2b00      	cmp	r3, #0
 8001fb8:	d001      	beq.n	8001fbe <EXTI9_5_IRQHandler+0x16>
 8001fba:	f3af 8000 	nop.w
}
 8001fbe:	bf00      	nop
 8001fc0:	bd80      	pop	{r7, pc}
 8001fc2:	bf00      	nop
 8001fc4:	00000000 	.word	0x00000000

08001fc8 <EXTI15_10_IRQHandler>:


void EXTI15_10_IRQHandler(void){
 8001fc8:	b580      	push	{r7, lr}
 8001fca:	af00      	add	r7, sp, #0
	extiGroupDispatch(10, 15);
 8001fcc:	210f      	movs	r1, #15
 8001fce:	200a      	movs	r0, #10
 8001fd0:	f7ff ff5c 	bl	8001e8c <extiGroupDispatch>
	if(EXTI15_10_User_Handler) EXTI15_10_User_Handler();
 8001fd4:	4b03      	ldr	r3, [pc, #12]	@ (8001fe4 <EXTI15_10_IRQHandler+0x1c>)
 8001fd6:	2b00      	cmp	r3, #0
 8001fd8:	d001      	beq.n	8001fde <EXTI15_10_IRQHandler+0x16>
 8001fda:	f3af 8000 	nop.w
}
 8001fde:	bf00      	nop
 8001fe0:	bd80      	pop	{r7, pc}
 8001fe2:	bf00      	nop
 8001fe4:	00000000 	.word	0x00000000

08001fe8 <enableGPIOClock>:
#include "../inc/gpio.h"

static void enableGPIOClock(Pin_t pin){
 8001fe8:	b480      	push	{r7}
 8001fea:	b083      	sub	sp, #12
 8001fec:	af00      	add	r7, sp, #0
 8001fee:	463b      	mov	r3, r7
 8001ff0:	e883 0003 	stmia.w	r3, {r0, r1}
	if(pin.port == GPIOA){
 8001ff4:	683b      	ldr	r3, [r7, #0]
 8001ff6:	4a13      	ldr	r2, [pc, #76]	@ (8002044 <enableGPIOClock+0x5c>)
 8001ff8:	4293      	cmp	r3, r2
 8001ffa:	d106      	bne.n	800200a <enableGPIOClock+0x22>
		RCC->APB2ENR |= RCC_APB2ENR_IOPAEN;
 8001ffc:	4b12      	ldr	r3, [pc, #72]	@ (8002048 <enableGPIOClock+0x60>)
 8001ffe:	699b      	ldr	r3, [r3, #24]
 8002000:	4a11      	ldr	r2, [pc, #68]	@ (8002048 <enableGPIOClock+0x60>)
 8002002:	f043 0304 	orr.w	r3, r3, #4
 8002006:	6193      	str	r3, [r2, #24]
 8002008:	e014      	b.n	8002034 <enableGPIOClock+0x4c>
	}
	else if(pin.port == GPIOB){
 800200a:	683b      	ldr	r3, [r7, #0]
 800200c:	4a0f      	ldr	r2, [pc, #60]	@ (800204c <enableGPIOClock+0x64>)
 800200e:	4293      	cmp	r3, r2
 8002010:	d106      	bne.n	8002020 <enableGPIOClock+0x38>
		RCC->APB2ENR |= RCC_APB2ENR_IOPBEN;
 8002012:	4b0d      	ldr	r3, [pc, #52]	@ (8002048 <enableGPIOClock+0x60>)
 8002014:	699b      	ldr	r3, [r3, #24]
 8002016:	4a0c      	ldr	r2, [pc, #48]	@ (8002048 <enableGPIOClock+0x60>)
 8002018:	f043 0308 	orr.w	r3, r3, #8
 800201c:	6193      	str	r3, [r2, #24]
 800201e:	e009      	b.n	8002034 <enableGPIOClock+0x4c>
	}
	else if(pin.port == GPIOC){
 8002020:	683b      	ldr	r3, [r7, #0]
 8002022:	4a0b      	ldr	r2, [pc, #44]	@ (8002050 <enableGPIOClock+0x68>)
 8002024:	4293      	cmp	r3, r2
 8002026:	d105      	bne.n	8002034 <enableGPIOClock+0x4c>
		RCC->APB2ENR |= RCC_APB2ENR_IOPCEN;
 8002028:	4b07      	ldr	r3, [pc, #28]	@ (8002048 <enableGPIOClock+0x60>)
 800202a:	699b      	ldr	r3, [r3, #24]
 800202c:	4a06      	ldr	r2, [pc, #24]	@ (8002048 <enableGPIOClock+0x60>)
 800202e:	f043 0310 	orr.w	r3, r3, #16
 8002032:	6193      	str	r3, [r2, #24]
	}
	(void)pin.port->CRL;
 8002034:	683b      	ldr	r3, [r7, #0]
 8002036:	681b      	ldr	r3, [r3, #0]
}
 8002038:	bf00      	nop
 800203a:	370c      	adds	r7, #12
 800203c:	46bd      	mov	sp, r7
 800203e:	bc80      	pop	{r7}
 8002040:	4770      	bx	lr
 8002042:	bf00      	nop
 8002044:	40010800 	.word	0x40010800
 8002048:	40021000 	.word	0x40021000
 800204c:	40010c00 	.word	0x40010c00
 8002050:	40011000 	.word	0x40011000

08002054 <gpioPortIndex>:


uint8_t gpioPortIndex(GPIO_TypeDef *port){
 8002054:	b480      	push	{r7}
 8002056:	b083      	sub	sp, #12
 8002058:	af00      	add	r7, sp, #0
 800205a:	6078      	str	r0, [r7, #4]
	if(port == GPIOA){
 800205c:	687b      	ldr	r3, [r7, #4]
 800205e:	4a0b      	ldr	r2, [pc, #44]	@ (800208c <gpioPortIndex+0x38>)
 8002060:	4293      	cmp	r3, r2
 8002062:	d101      	bne.n	8002068 <gpioPortIndex+0x14>
		return 0;
 8002064:	2300      	movs	r3, #0
 8002066:	e00c      	b.n	8002082 <gpioPortIndex+0x2e>
	}
	else if(port == GPIOB){
 8002068:	687b      	ldr	r3, [r7, #4]
 800206a:	4a09      	ldr	r2, [pc, #36]	@ (8002090 <gpioPortIndex+0x3c>)
 800206c:	4293      	cmp	r3, r2
 800206e:	d101      	bne.n	8002074 <gpioPortIndex+0x20>
		return 1;
 8002070:	2301      	movs	r3, #1
 8002072:	e006      	b.n	8002082 <gpioPortIndex+0x2e>
	}
	else if(port == GPIOC){
 8002074:	687b      	ldr	r3, [r7, #4]
 8002076:	4a07      	ldr	r2, [pc, #28]	@ (8002094 <gpioPortIndex+0x40>)
 8002078:	4293      	cmp	r3, r2
 800207a:	d101      	bne.n	8002080 <gpioPortIndex+0x2c>
		return 2;
 800207c:	2302      	movs	r3, #2
 800207e:	e000      	b.n	8002082 <gpioPortIndex+0x2e>
	}
	return 0;
 8002080:	2300      	movs	r3, #0
}
 8002082:	4618      	mov	r0, r3
 8002084:	370c      	adds	r7, #12
 8002086:	46bd      	mov	sp, r7
 8002088:	bc80      	pop	{r7}
 800208a:	4770      	bx	lr
 800208c:	40010800 	.word	0x40010800
 8002090:	40010c00 	.word	0x40010c00
 8002094:	40011000 	.word	0x40011000

08002098 <pinMode>:


void pinMode(Pin_t pin, uint8_t mode, uint8_t cnf, uint8_t pull){
 8002098:	b590      	push	{r4, r7, lr}
 800209a:	b087      	sub	sp, #28
 800209c:	af00      	add	r7, sp, #0
 800209e:	f107 0408 	add.w	r4, r7, #8
 80020a2:	e884 0003 	stmia.w	r4, {r0, r1}
 80020a6:	4611      	mov	r1, r2
 80020a8:	461a      	mov	r2, r3
 80020aa:	460b      	mov	r3, r1
 80020ac:	71fb      	strb	r3, [r7, #7]
 80020ae:	4613      	mov	r3, r2
 80020b0:	71bb      	strb	r3, [r7, #6]
	enableGPIOClock(pin);
 80020b2:	f107 0308 	add.w	r3, r7, #8
 80020b6:	e893 0003 	ldmia.w	r3, {r0, r1}
 80020ba:	f7ff ff95 	bl	8001fe8 <enableGPIOClock>
	GPIO_TypeDef* GPIOx = pin.port;
 80020be:	68bb      	ldr	r3, [r7, #8]
 80020c0:	617b      	str	r3, [r7, #20]
	uint8_t pin_number = pin.number;
 80020c2:	7b3b      	ldrb	r3, [r7, #12]
 80020c4:	74fb      	strb	r3, [r7, #19]
	uint8_t shift = 4*(pin_number < 8? pin_number: pin_number - 8);
 80020c6:	7cfb      	ldrb	r3, [r7, #19]
 80020c8:	2b07      	cmp	r3, #7
 80020ca:	d803      	bhi.n	80020d4 <pinMode+0x3c>
 80020cc:	7cfb      	ldrb	r3, [r7, #19]
 80020ce:	009b      	lsls	r3, r3, #2
 80020d0:	b2db      	uxtb	r3, r3
 80020d2:	e004      	b.n	80020de <pinMode+0x46>
 80020d4:	7cfb      	ldrb	r3, [r7, #19]
 80020d6:	3b08      	subs	r3, #8
 80020d8:	b2db      	uxtb	r3, r3
 80020da:	009b      	lsls	r3, r3, #2
 80020dc:	b2db      	uxtb	r3, r3
 80020de:	74bb      	strb	r3, [r7, #18]
	if(pin_number < 8){
 80020e0:	7cfb      	ldrb	r3, [r7, #19]
 80020e2:	2b07      	cmp	r3, #7
 80020e4:	d816      	bhi.n	8002114 <pinMode+0x7c>
		GPIOx->CRL &= ~( 0xFUL << shift);
 80020e6:	697b      	ldr	r3, [r7, #20]
 80020e8:	681a      	ldr	r2, [r3, #0]
 80020ea:	7cbb      	ldrb	r3, [r7, #18]
 80020ec:	210f      	movs	r1, #15
 80020ee:	fa01 f303 	lsl.w	r3, r1, r3
 80020f2:	43db      	mvns	r3, r3
 80020f4:	401a      	ands	r2, r3
 80020f6:	697b      	ldr	r3, [r7, #20]
 80020f8:	601a      	str	r2, [r3, #0]
		GPIOx->CRL |= ((cnf << 2) | mode) << shift;
 80020fa:	697b      	ldr	r3, [r7, #20]
 80020fc:	681b      	ldr	r3, [r3, #0]
 80020fe:	79ba      	ldrb	r2, [r7, #6]
 8002100:	0091      	lsls	r1, r2, #2
 8002102:	79fa      	ldrb	r2, [r7, #7]
 8002104:	4311      	orrs	r1, r2
 8002106:	7cba      	ldrb	r2, [r7, #18]
 8002108:	fa01 f202 	lsl.w	r2, r1, r2
 800210c:	431a      	orrs	r2, r3
 800210e:	697b      	ldr	r3, [r7, #20]
 8002110:	601a      	str	r2, [r3, #0]
 8002112:	e015      	b.n	8002140 <pinMode+0xa8>
	}
	else{
		GPIOx->CRH &= ~( 0xFUL << shift);
 8002114:	697b      	ldr	r3, [r7, #20]
 8002116:	685a      	ldr	r2, [r3, #4]
 8002118:	7cbb      	ldrb	r3, [r7, #18]
 800211a:	210f      	movs	r1, #15
 800211c:	fa01 f303 	lsl.w	r3, r1, r3
 8002120:	43db      	mvns	r3, r3
 8002122:	401a      	ands	r2, r3
 8002124:	697b      	ldr	r3, [r7, #20]
 8002126:	605a      	str	r2, [r3, #4]
		GPIOx->CRH |= ((cnf << 2) | mode) << shift;
 8002128:	697b      	ldr	r3, [r7, #20]
 800212a:	685b      	ldr	r3, [r3, #4]
 800212c:	79ba      	ldrb	r2, [r7, #6]
 800212e:	0091      	lsls	r1, r2, #2
 8002130:	79fa      	ldrb	r2, [r7, #7]
 8002132:	4311      	orrs	r1, r2
 8002134:	7cba      	ldrb	r2, [r7, #18]
 8002136:	fa01 f202 	lsl.w	r2, r1, r2
 800213a:	431a      	orrs	r2, r3
 800213c:	697b      	ldr	r3, [r7, #20]
 800213e:	605a      	str	r2, [r3, #4]
	}
	if(mode == GPIO_MODE_INPUT && cnf == GPIO_CNF_INPUT_PU_PD){
 8002140:	79fb      	ldrb	r3, [r7, #7]
 8002142:	2b00      	cmp	r3, #0
 8002144:	d11a      	bne.n	800217c <pinMode+0xe4>
 8002146:	79bb      	ldrb	r3, [r7, #6]
 8002148:	2b02      	cmp	r3, #2
 800214a:	d117      	bne.n	800217c <pinMode+0xe4>
		if(pull){
 800214c:	f897 3028 	ldrb.w	r3, [r7, #40]	@ 0x28
 8002150:	2b00      	cmp	r3, #0
 8002152:	d009      	beq.n	8002168 <pinMode+0xd0>
			GPIOx->ODR |= 1 << pin_number;
 8002154:	697b      	ldr	r3, [r7, #20]
 8002156:	68db      	ldr	r3, [r3, #12]
 8002158:	7cfa      	ldrb	r2, [r7, #19]
 800215a:	2101      	movs	r1, #1
 800215c:	fa01 f202 	lsl.w	r2, r1, r2
 8002160:	431a      	orrs	r2, r3
 8002162:	697b      	ldr	r3, [r7, #20]
 8002164:	60da      	str	r2, [r3, #12]
		}
		else{
			GPIOx->ODR &= ~(1 << pin_number);
		}
	}
}
 8002166:	e009      	b.n	800217c <pinMode+0xe4>
			GPIOx->ODR &= ~(1 << pin_number);
 8002168:	697b      	ldr	r3, [r7, #20]
 800216a:	68db      	ldr	r3, [r3, #12]
 800216c:	7cfa      	ldrb	r2, [r7, #19]
 800216e:	2101      	movs	r1, #1
 8002170:	fa01 f202 	lsl.w	r2, r1, r2
 8002174:	43d2      	mvns	r2, r2
 8002176:	401a      	ands	r2, r3
 8002178:	697b      	ldr	r3, [r7, #20]
 800217a:	60da      	str	r2, [r3, #12]
}
 800217c:	bf00      	nop
 800217e:	371c      	adds	r7, #28
 8002180:	46bd      	mov	sp, r7
 8002182:	bd90      	pop	{r4, r7, pc}

08002184 <pinModeMulti>:



void pinModeMulti(Pin_t *pins, size_t pins_number, uint8_t mode, uint8_t cnf, uint8_t pull){
 8002184:	b580      	push	{r7, lr}
 8002186:	b088      	sub	sp, #32
 8002188:	af02      	add	r7, sp, #8
 800218a:	60f8      	str	r0, [r7, #12]
 800218c:	60b9      	str	r1, [r7, #8]
 800218e:	4611      	mov	r1, r2
 8002190:	461a      	mov	r2, r3
 8002192:	460b      	mov	r3, r1
 8002194:	71fb      	strb	r3, [r7, #7]
 8002196:	4613      	mov	r3, r2
 8002198:	71bb      	strb	r3, [r7, #6]
	for(uint8_t i = 0; i < pins_number; i++)
 800219a:	2300      	movs	r3, #0
 800219c:	75fb      	strb	r3, [r7, #23]
 800219e:	e00f      	b.n	80021c0 <pinModeMulti+0x3c>
		pinMode(pins[i], mode, cnf, pull);
 80021a0:	7dfb      	ldrb	r3, [r7, #23]
 80021a2:	00db      	lsls	r3, r3, #3
 80021a4:	68fa      	ldr	r2, [r7, #12]
 80021a6:	18d1      	adds	r1, r2, r3
 80021a8:	79b8      	ldrb	r0, [r7, #6]
 80021aa:	79fa      	ldrb	r2, [r7, #7]
 80021ac:	f897 3020 	ldrb.w	r3, [r7, #32]
 80021b0:	9300      	str	r3, [sp, #0]
 80021b2:	4603      	mov	r3, r0
 80021b4:	c903      	ldmia	r1, {r0, r1}
 80021b6:	f7ff ff6f 	bl	8002098 <pinMode>
	for(uint8_t i = 0; i < pins_number; i++)
 80021ba:	7dfb      	ldrb	r3, [r7, #23]
 80021bc:	3301      	adds	r3, #1
 80021be:	75fb      	strb	r3, [r7, #23]
 80021c0:	7dfb      	ldrb	r3, [r7, #23]
 80021c2:	68ba      	ldr	r2, [r7, #8]
 80021c4:	429a      	cmp	r2, r3
 80021c6:	d8eb      	bhi.n	80021a0 <pinModeMulti+0x1c>
}
 80021c8:	bf00      	nop
 80021ca:	bf00      	nop
 80021cc:	3718      	adds	r7, #24
 80021ce:	46bd      	mov	sp, r7
 80021d0:	bd80      	pop	{r7, pc}
	...

080021d4 <I2C_Init>:
#include "../inc/i2c.h"

void I2C_Init(I2C_TypeDef *I2Cx, Pin_t SDA, Pin_t SCL){
 80021d4:	b082      	sub	sp, #8
 80021d6:	b580      	push	{r7, lr}
 80021d8:	b08c      	sub	sp, #48	@ 0x30
 80021da:	af02      	add	r7, sp, #8
 80021dc:	60f8      	str	r0, [r7, #12]
 80021de:	1d38      	adds	r0, r7, #4
 80021e0:	e880 0006 	stmia.w	r0, {r1, r2}
 80021e4:	637b      	str	r3, [r7, #52]	@ 0x34
	pinMode(SCL, GPIO_MODE_OUTPUT_10MHz, GPIO_CNF_PUSH_PULL, 0);
 80021e6:	2300      	movs	r3, #0
 80021e8:	9300      	str	r3, [sp, #0]
 80021ea:	2300      	movs	r3, #0
 80021ec:	2201      	movs	r2, #1
 80021ee:	f107 0134 	add.w	r1, r7, #52	@ 0x34
 80021f2:	c903      	ldmia	r1, {r0, r1}
 80021f4:	f7ff ff50 	bl	8002098 <pinMode>

	//  9 ,   ""  
	// TODO      SDA SCL
	for(int i = 0; i < 9; i++) {
 80021f8:	2300      	movs	r3, #0
 80021fa:	627b      	str	r3, [r7, #36]	@ 0x24
 80021fc:	e01c      	b.n	8002238 <I2C_Init+0x64>
		GPIOB->BRR = GPIO_BRR_BR6;   // SCL  0
 80021fe:	4b36      	ldr	r3, [pc, #216]	@ (80022d8 <I2C_Init+0x104>)
 8002200:	2240      	movs	r2, #64	@ 0x40
 8002202:	615a      	str	r2, [r3, #20]
		for(volatile int d = 0; d < 500; d++);
 8002204:	2300      	movs	r3, #0
 8002206:	623b      	str	r3, [r7, #32]
 8002208:	e002      	b.n	8002210 <I2C_Init+0x3c>
 800220a:	6a3b      	ldr	r3, [r7, #32]
 800220c:	3301      	adds	r3, #1
 800220e:	623b      	str	r3, [r7, #32]
 8002210:	6a3b      	ldr	r3, [r7, #32]
 8002212:	f5b3 7ffa 	cmp.w	r3, #500	@ 0x1f4
 8002216:	dbf8      	blt.n	800220a <I2C_Init+0x36>
		GPIOB->BSRR = GPIO_BSRR_BS6;  // SCL  1
 8002218:	4b2f      	ldr	r3, [pc, #188]	@ (80022d8 <I2C_Init+0x104>)
 800221a:	2240      	movs	r2, #64	@ 0x40
 800221c:	611a      	str	r2, [r3, #16]
		for(volatile int d = 0; d < 500; d++);
 800221e:	2300      	movs	r3, #0
 8002220:	61fb      	str	r3, [r7, #28]
 8002222:	e002      	b.n	800222a <I2C_Init+0x56>
 8002224:	69fb      	ldr	r3, [r7, #28]
 8002226:	3301      	adds	r3, #1
 8002228:	61fb      	str	r3, [r7, #28]
 800222a:	69fb      	ldr	r3, [r7, #28]
 800222c:	f5b3 7ffa 	cmp.w	r3, #500	@ 0x1f4
 8002230:	dbf8      	blt.n	8002224 <I2C_Init+0x50>
	for(int i = 0; i < 9; i++) {
 8002232:	6a7b      	ldr	r3, [r7, #36]	@ 0x24
 8002234:	3301      	adds	r3, #1
 8002236:	627b      	str	r3, [r7, #36]	@ 0x24
 8002238:	6a7b      	ldr	r3, [r7, #36]	@ 0x24
 800223a:	2b08      	cmp	r3, #8
 800223c:	dddf      	ble.n	80021fe <I2C_Init+0x2a>
	}

	pinMode(SDA, GPIO_MODE_OUTPUT_2MHz, GPIO_CNF_OPEN_DRAIN_ALT, 0);
 800223e:	2300      	movs	r3, #0
 8002240:	9300      	str	r3, [sp, #0]
 8002242:	2303      	movs	r3, #3
 8002244:	2202      	movs	r2, #2
 8002246:	1d39      	adds	r1, r7, #4
 8002248:	c903      	ldmia	r1, {r0, r1}
 800224a:	f7ff ff25 	bl	8002098 <pinMode>
	pinMode(SCL, GPIO_MODE_OUTPUT_2MHz, GPIO_CNF_OPEN_DRAIN_ALT, 0);
 800224e:	2300      	movs	r3, #0
 8002250:	9300      	str	r3, [sp, #0]
 8002252:	2303      	movs	r3, #3
 8002254:	2202      	movs	r2, #2
 8002256:	f107 0134 	add.w	r1, r7, #52	@ 0x34
 800225a:	c903      	ldmia	r1, {r0, r1}
 800225c:	f7ff ff1c 	bl	8002098 <pinMode>

	I2Cx->CR1 |= I2C_CR1_SWRST;
 8002260:	68fb      	ldr	r3, [r7, #12]
 8002262:	681b      	ldr	r3, [r3, #0]
 8002264:	f443 4200 	orr.w	r2, r3, #32768	@ 0x8000
 8002268:	68fb      	ldr	r3, [r7, #12]
 800226a:	601a      	str	r2, [r3, #0]
	for(volatile int i = 0; i < 1000; i++);
 800226c:	2300      	movs	r3, #0
 800226e:	61bb      	str	r3, [r7, #24]
 8002270:	e002      	b.n	8002278 <I2C_Init+0xa4>
 8002272:	69bb      	ldr	r3, [r7, #24]
 8002274:	3301      	adds	r3, #1
 8002276:	61bb      	str	r3, [r7, #24]
 8002278:	69bb      	ldr	r3, [r7, #24]
 800227a:	f5b3 7f7a 	cmp.w	r3, #1000	@ 0x3e8
 800227e:	dbf8      	blt.n	8002272 <I2C_Init+0x9e>
	I2Cx->CR1 &= ~I2C_CR1_SWRST;
 8002280:	68fb      	ldr	r3, [r7, #12]
 8002282:	681b      	ldr	r3, [r3, #0]
 8002284:	f423 4200 	bic.w	r2, r3, #32768	@ 0x8000
 8002288:	68fb      	ldr	r3, [r7, #12]
 800228a:	601a      	str	r2, [r3, #0]
	I2Cx->CR2 |= 8;
 800228c:	68fb      	ldr	r3, [r7, #12]
 800228e:	685b      	ldr	r3, [r3, #4]
 8002290:	f043 0208 	orr.w	r2, r3, #8
 8002294:	68fb      	ldr	r3, [r7, #12]
 8002296:	605a      	str	r2, [r3, #4]
	I2Cx->CCR = 40;
 8002298:	68fb      	ldr	r3, [r7, #12]
 800229a:	2228      	movs	r2, #40	@ 0x28
 800229c:	61da      	str	r2, [r3, #28]
	I2Cx->TRISE = 9;
 800229e:	68fb      	ldr	r3, [r7, #12]
 80022a0:	2209      	movs	r2, #9
 80022a2:	621a      	str	r2, [r3, #32]
	I2Cx->CR1 |= I2C_CR1_PE;
 80022a4:	68fb      	ldr	r3, [r7, #12]
 80022a6:	681b      	ldr	r3, [r3, #0]
 80022a8:	f043 0201 	orr.w	r2, r3, #1
 80022ac:	68fb      	ldr	r3, [r7, #12]
 80022ae:	601a      	str	r2, [r3, #0]
	for(volatile int i = 0; i < 10000; i++);
 80022b0:	2300      	movs	r3, #0
 80022b2:	617b      	str	r3, [r7, #20]
 80022b4:	e002      	b.n	80022bc <I2C_Init+0xe8>
 80022b6:	697b      	ldr	r3, [r7, #20]
 80022b8:	3301      	adds	r3, #1
 80022ba:	617b      	str	r3, [r7, #20]
 80022bc:	697b      	ldr	r3, [r7, #20]
 80022be:	f242 720f 	movw	r2, #9999	@ 0x270f
 80022c2:	4293      	cmp	r3, r2
 80022c4:	ddf7      	ble.n	80022b6 <I2C_Init+0xe2>
}
 80022c6:	bf00      	nop
 80022c8:	bf00      	nop
 80022ca:	3728      	adds	r7, #40	@ 0x28
 80022cc:	46bd      	mov	sp, r7
 80022ce:	e8bd 4080 	ldmia.w	sp!, {r7, lr}
 80022d2:	b002      	add	sp, #8
 80022d4:	4770      	bx	lr
 80022d6:	bf00      	nop
 80022d8:	40010c00 	.word	0x40010c00

080022dc <I2C_Start>:


void I2C_Start(I2C_TypeDef *I2Cx){
 80022dc:	b480      	push	{r7}
 80022de:	b083      	sub	sp, #12
 80022e0:	af00      	add	r7, sp, #0
 80022e2:	6078      	str	r0, [r7, #4]
	I2Cx->CR1 |= I2C_CR1_START;
 80022e4:	687b      	ldr	r3, [r7, #4]
 80022e6:	681b      	ldr	r3, [r3, #0]
 80022e8:	f443 7280 	orr.w	r2, r3, #256	@ 0x100
 80022ec:	687b      	ldr	r3, [r7, #4]
 80022ee:	601a      	str	r2, [r3, #0]
	while(!(I2Cx->SR1 & I2C_SR1_SB));
 80022f0:	bf00      	nop
 80022f2:	687b      	ldr	r3, [r7, #4]
 80022f4:	695b      	ldr	r3, [r3, #20]
 80022f6:	f003 0301 	and.w	r3, r3, #1
 80022fa:	2b00      	cmp	r3, #0
 80022fc:	d0f9      	beq.n	80022f2 <I2C_Start+0x16>
}
 80022fe:	bf00      	nop
 8002300:	bf00      	nop
 8002302:	370c      	adds	r7, #12
 8002304:	46bd      	mov	sp, r7
 8002306:	bc80      	pop	{r7}
 8002308:	4770      	bx	lr

0800230a <I2C_WriteByte>:


static void I2C_WriteByte(I2C_TypeDef *I2Cx, uint8_t data){
 800230a:	b480      	push	{r7}
 800230c:	b083      	sub	sp, #12
 800230e:	af00      	add	r7, sp, #0
 8002310:	6078      	str	r0, [r7, #4]
 8002312:	460b      	mov	r3, r1
 8002314:	70fb      	strb	r3, [r7, #3]
	I2Cx->DR = data;
 8002316:	78fa      	ldrb	r2, [r7, #3]
 8002318:	687b      	ldr	r3, [r7, #4]
 800231a:	611a      	str	r2, [r3, #16]
	while(!(I2Cx->SR1 & I2C_SR1_TXE));
 800231c:	bf00      	nop
 800231e:	687b      	ldr	r3, [r7, #4]
 8002320:	695b      	ldr	r3, [r3, #20]
 8002322:	f003 0380 	and.w	r3, r3, #128	@ 0x80
 8002326:	2b00      	cmp	r3, #0
 8002328:	d0f9      	beq.n	800231e <I2C_WriteByte+0x14>
}
 800232a:	bf00      	nop
 800232c:	bf00      	nop
 800232e:	370c      	adds	r7, #12
 8002330:	46bd      	mov	sp, r7
 8002332:	bc80      	pop	{r7}
 8002334:	4770      	bx	lr

08002336 <I2C_Send_Address_And_Reg>:


static void I2C_Send_Address_And_Reg(I2C_TypeDef *I2Cx, uint8_t devAddr, uint8_t regAddr){
 8002336:	b580      	push	{r7, lr}
 8002338:	b082      	sub	sp, #8
 800233a:	af00      	add	r7, sp, #0
 800233c:	6078      	str	r0, [r7, #4]
 800233e:	460b      	mov	r3, r1
 8002340:	70fb      	strb	r3, [r7, #3]
 8002342:	4613      	mov	r3, r2
 8002344:	70bb      	strb	r3, [r7, #2]
	I2C_Start(I2Cx);
 8002346:	6878      	ldr	r0, [r7, #4]
 8002348:	f7ff ffc8 	bl	80022dc <I2C_Start>
	I2C_WriteByte(I2Cx, devAddr << 1);
 800234c:	78fb      	ldrb	r3, [r7, #3]
 800234e:	005b      	lsls	r3, r3, #1
 8002350:	b2db      	uxtb	r3, r3
 8002352:	4619      	mov	r1, r3
 8002354:	6878      	ldr	r0, [r7, #4]
 8002356:	f7ff ffd8 	bl	800230a <I2C_WriteByte>

	while(!(I2Cx->SR1 & I2C_SR1_ADDR));
 800235a:	bf00      	nop
 800235c:	687b      	ldr	r3, [r7, #4]
 800235e:	695b      	ldr	r3, [r3, #20]
 8002360:	f003 0302 	and.w	r3, r3, #2
 8002364:	2b00      	cmp	r3, #0
 8002366:	d0f9      	beq.n	800235c <I2C_Send_Address_And_Reg+0x26>
	(void)I2Cx->SR2;
 8002368:	687b      	ldr	r3, [r7, #4]
 800236a:	699b      	ldr	r3, [r3, #24]

	I2C_WriteByte(I2Cx, regAddr);
 800236c:	78bb      	ldrb	r3, [r7, #2]
 800236e:	4619      	mov	r1, r3
 8002370:	6878      	ldr	r0, [r7, #4]
 8002372:	f7ff ffca 	bl	800230a <I2C_WriteByte>
	while(!(I2Cx->SR1 & I2C_SR1_BTF));
 8002376:	bf00      	nop
 8002378:	687b      	ldr	r3, [r7, #4]
 800237a:	695b      	ldr	r3, [r3, #20]
 800237c:	f003 0304 	and.w	r3, r3, #4
 8002380:	2b00      	cmp	r3, #0
 8002382:	d0f9      	beq.n	8002378 <I2C_Send_Address_And_Reg+0x42>
}
 8002384:	bf00      	nop
 8002386:	bf00      	nop
 8002388:	3708      	adds	r7, #8
 800238a:	46bd      	mov	sp, r7
 800238c:	bd80      	pop	{r7, pc}

0800238e <I2C_WriteReg>:


void I2C_WriteReg(I2C_TypeDef *I2Cx, uint8_t devAddr, uint8_t regAddr, uint8_t data){
 800238e:	b580      	push	{r7, lr}
 8002390:	b082      	sub	sp, #8
 8002392:	af00      	add	r7, sp, #0
 8002394:	6078      	str	r0, [r7, #4]
 8002396:	4608      	mov	r0, r1
 8002398:	4611      	mov	r1, r2
 800239a:	461a      	mov	r2, r3
 800239c:	4603      	mov	r3, r0
 800239e:	70fb      	strb	r3, [r7, #3]
 80023a0:	460b      	mov	r3, r1
 80023a2:	70bb      	strb	r3, [r7, #2]
 80023a4:	4613      	mov	r3, r2
 80023a6:	707b      	strb	r3, [r7, #1]
	I2C_Send_Address_And_Reg(I2Cx, devAddr, regAddr);
 80023a8:	78ba      	ldrb	r2, [r7, #2]
 80023aa:	78fb      	ldrb	r3, [r7, #3]
 80023ac:	4619      	mov	r1, r3
 80023ae:	6878      	ldr	r0, [r7, #4]
 80023b0:	f7ff ffc1 	bl	8002336 <I2C_Send_Address_And_Reg>
	I2C_WriteByte(I2Cx, data);
 80023b4:	787b      	ldrb	r3, [r7, #1]
 80023b6:	4619      	mov	r1, r3
 80023b8:	6878      	ldr	r0, [r7, #4]
 80023ba:	f7ff ffa6 	bl	800230a <I2C_WriteByte>
	I2Cx->CR1 |= I2C_CR1_STOP;
 80023be:	687b      	ldr	r3, [r7, #4]
 80023c0:	681b      	ldr	r3, [r3, #0]
 80023c2:	f443 7200 	orr.w	r2, r3, #512	@ 0x200
 80023c6:	687b      	ldr	r3, [r7, #4]
 80023c8:	601a      	str	r2, [r3, #0]
}
 80023ca:	bf00      	nop
 80023cc:	3708      	adds	r7, #8
 80023ce:	46bd      	mov	sp, r7
 80023d0:	bd80      	pop	{r7, pc}

080023d2 <I2C_Read_Burst>:
	I2C_Read_Burst(I2Cx, devAddr, regAddr, &data, 1);
	return data;
}


void I2C_Read_Burst(I2C_TypeDef *I2Cx, uint8_t devAddr, uint8_t regAddr, uint8_t *pBuffer, uint16_t size){
 80023d2:	b580      	push	{r7, lr}
 80023d4:	b086      	sub	sp, #24
 80023d6:	af00      	add	r7, sp, #0
 80023d8:	60f8      	str	r0, [r7, #12]
 80023da:	607b      	str	r3, [r7, #4]
 80023dc:	460b      	mov	r3, r1
 80023de:	72fb      	strb	r3, [r7, #11]
 80023e0:	4613      	mov	r3, r2
 80023e2:	72bb      	strb	r3, [r7, #10]
	while(I2Cx->SR2 & I2C_SR2_BUSY);
 80023e4:	bf00      	nop
 80023e6:	68fb      	ldr	r3, [r7, #12]
 80023e8:	699b      	ldr	r3, [r3, #24]
 80023ea:	f003 0302 	and.w	r3, r3, #2
 80023ee:	2b00      	cmp	r3, #0
 80023f0:	d1f9      	bne.n	80023e6 <I2C_Read_Burst+0x14>

	I2C_Send_Address_And_Reg(I2Cx, devAddr, regAddr);
 80023f2:	7aba      	ldrb	r2, [r7, #10]
 80023f4:	7afb      	ldrb	r3, [r7, #11]
 80023f6:	4619      	mov	r1, r3
 80023f8:	68f8      	ldr	r0, [r7, #12]
 80023fa:	f7ff ff9c 	bl	8002336 <I2C_Send_Address_And_Reg>

	I2C_Start(I2Cx);
 80023fe:	68f8      	ldr	r0, [r7, #12]
 8002400:	f7ff ff6c 	bl	80022dc <I2C_Start>
	I2Cx->DR = (devAddr << 1) | 0x01;
 8002404:	7afb      	ldrb	r3, [r7, #11]
 8002406:	005b      	lsls	r3, r3, #1
 8002408:	f043 0301 	orr.w	r3, r3, #1
 800240c:	461a      	mov	r2, r3
 800240e:	68fb      	ldr	r3, [r7, #12]
 8002410:	611a      	str	r2, [r3, #16]
	while(!(I2Cx->SR1 & I2C_SR1_ADDR));
 8002412:	bf00      	nop
 8002414:	68fb      	ldr	r3, [r7, #12]
 8002416:	695b      	ldr	r3, [r3, #20]
 8002418:	f003 0302 	and.w	r3, r3, #2
 800241c:	2b00      	cmp	r3, #0
 800241e:	d0f9      	beq.n	8002414 <I2C_Read_Burst+0x42>

	if(size == 1){
 8002420:	8c3b      	ldrh	r3, [r7, #32]
 8002422:	2b01      	cmp	r3, #1
 8002424:	d10e      	bne.n	8002444 <I2C_Read_Burst+0x72>
		I2Cx->CR1 &= ~I2C_CR1_ACK;
 8002426:	68fb      	ldr	r3, [r7, #12]
 8002428:	681b      	ldr	r3, [r3, #0]
 800242a:	f423 6280 	bic.w	r2, r3, #1024	@ 0x400
 800242e:	68fb      	ldr	r3, [r7, #12]
 8002430:	601a      	str	r2, [r3, #0]
		(void)I2Cx->SR2;
 8002432:	68fb      	ldr	r3, [r7, #12]
 8002434:	699b      	ldr	r3, [r3, #24]
		I2Cx->CR1 |= I2C_CR1_STOP;
 8002436:	68fb      	ldr	r3, [r7, #12]
 8002438:	681b      	ldr	r3, [r3, #0]
 800243a:	f443 7200 	orr.w	r2, r3, #512	@ 0x200
 800243e:	68fb      	ldr	r3, [r7, #12]
 8002440:	601a      	str	r2, [r3, #0]
 8002442:	e007      	b.n	8002454 <I2C_Read_Burst+0x82>
	}
	else{
		I2Cx->CR1 |= I2C_CR1_ACK;
 8002444:	68fb      	ldr	r3, [r7, #12]
 8002446:	681b      	ldr	r3, [r3, #0]
 8002448:	f443 6280 	orr.w	r2, r3, #1024	@ 0x400
 800244c:	68fb      	ldr	r3, [r7, #12]
 800244e:	601a      	str	r2, [r3, #0]
		(void)I2Cx->SR2;
 8002450:	68fb      	ldr	r3, [r7, #12]
 8002452:	699b      	ldr	r3, [r3, #24]
	}

	for(uint16_t i = 0; i < size; i++){
 8002454:	2300      	movs	r3, #0
 8002456:	82fb      	strh	r3, [r7, #22]
 8002458:	e021      	b.n	800249e <I2C_Read_Burst+0xcc>
		if(i == size - 1){
 800245a:	8afa      	ldrh	r2, [r7, #22]
 800245c:	8c3b      	ldrh	r3, [r7, #32]
 800245e:	3b01      	subs	r3, #1
 8002460:	429a      	cmp	r2, r3
 8002462:	d10b      	bne.n	800247c <I2C_Read_Burst+0xaa>
			I2Cx->CR1 &= ~I2C_CR1_ACK;
 8002464:	68fb      	ldr	r3, [r7, #12]
 8002466:	681b      	ldr	r3, [r3, #0]
 8002468:	f423 6280 	bic.w	r2, r3, #1024	@ 0x400
 800246c:	68fb      	ldr	r3, [r7, #12]
 800246e:	601a      	str	r2, [r3, #0]
			I2Cx->CR1 |= I2C_CR1_STOP;
 8002470:	68fb      	ldr	r3, [r7, #12]
 8002472:	681b      	ldr	r3, [r3, #0]
 8002474:	f443 7200 	orr.w	r2, r3, #512	@ 0x200
 8002478:	68fb      	ldr	r3, [r7, #12]
 800247a:	601a      	str	r2, [r3, #0]
		}

		while(!(I2Cx->SR1 & I2C_SR1_RXNE));
 800247c:	bf00      	nop
 800247e:	68fb      	ldr	r3, [r7, #12]
 8002480:	695b      	ldr	r3, [r3, #20]
 8002482:	f003 0340 	and.w	r3, r3, #64	@ 0x40
 8002486:	2b00      	cmp	r3, #0
 8002488:	d0f9      	beq.n	800247e <I2C_Read_Burst+0xac>
		pBuffer[i] = I2Cx->DR;
 800248a:	68fb      	ldr	r3, [r7, #12]
 800248c:	6919      	ldr	r1, [r3, #16]
 800248e:	8afb      	ldrh	r3, [r7, #22]
 8002490:	687a      	ldr	r2, [r7, #4]
 8002492:	4413      	add	r3, r2
 8002494:	b2ca      	uxtb	r2, r1
 8002496:	701a      	strb	r2, [r3, #0]
	for(uint16_t i = 0; i < size; i++){
 8002498:	8afb      	ldrh	r3, [r7, #22]
 800249a:	3301      	adds	r3, #1
 800249c:	82fb      	strh	r3, [r7, #22]
 800249e:	8afa      	ldrh	r2, [r7, #22]
 80024a0:	8c3b      	ldrh	r3, [r7, #32]
 80024a2:	429a      	cmp	r2, r3
 80024a4:	d3d9      	bcc.n	800245a <I2C_Read_Burst+0x88>
	}

}
 80024a6:	bf00      	nop
 80024a8:	bf00      	nop
 80024aa:	3718      	adds	r7, #24
 80024ac:	46bd      	mov	sp, r7
 80024ae:	bd80      	pop	{r7, pc}

080024b0 <pwmInit>:
	{{GPIOB, 1}, TIM3, 4},

};


void pwmInit(Pin_t pin){
 80024b0:	b580      	push	{r7, lr}
 80024b2:	b088      	sub	sp, #32
 80024b4:	af00      	add	r7, sp, #0
 80024b6:	463b      	mov	r3, r7
 80024b8:	e883 0003 	stmia.w	r3, {r0, r1}
	TimerChannel_t pin_metadata = getTIMChannel(pin);
 80024bc:	f107 0008 	add.w	r0, r7, #8
 80024c0:	463b      	mov	r3, r7
 80024c2:	e893 0006 	ldmia.w	r3, {r1, r2}
 80024c6:	f000 f895 	bl	80025f4 <getTIMChannel>
	if(pin_metadata.TIMx == NULL) return;
 80024ca:	68bb      	ldr	r3, [r7, #8]
 80024cc:	2b00      	cmp	r3, #0
 80024ce:	d04b      	beq.n	8002568 <pwmInit+0xb8>

	TIM_TypeDef *TIMx = pin_metadata.TIMx;
 80024d0:	68bb      	ldr	r3, [r7, #8]
 80024d2:	61fb      	str	r3, [r7, #28]
	uint8_t channel = pin_metadata.channel;
 80024d4:	7b3b      	ldrb	r3, [r7, #12]
 80024d6:	76fb      	strb	r3, [r7, #27]
	if((channel < 1) || (channel > 4)){
		//TODO assert error
	}
	__IO uint32_t *CCMRx = channel <= 2? &TIMx->CCMR1 : &TIMx->CCMR2;
 80024d8:	7efb      	ldrb	r3, [r7, #27]
 80024da:	2b02      	cmp	r3, #2
 80024dc:	d802      	bhi.n	80024e4 <pwmInit+0x34>
 80024de:	69fb      	ldr	r3, [r7, #28]
 80024e0:	3318      	adds	r3, #24
 80024e2:	e001      	b.n	80024e8 <pwmInit+0x38>
 80024e4:	69fb      	ldr	r3, [r7, #28]
 80024e6:	331c      	adds	r3, #28
 80024e8:	617b      	str	r3, [r7, #20]
	channel -= 1;
 80024ea:	7efb      	ldrb	r3, [r7, #27]
 80024ec:	3b01      	subs	r3, #1
 80024ee:	76fb      	strb	r3, [r7, #27]
	//     CCMR (0  CH1/CH3, 8  CH2/CH4)
	uint8_t shift = (pin_metadata.channel % 2 == 0) ? 8 : 0;
 80024f0:	7b3b      	ldrb	r3, [r7, #12]
 80024f2:	f003 0301 	and.w	r3, r3, #1
 80024f6:	b2db      	uxtb	r3, r3
 80024f8:	2b00      	cmp	r3, #0
 80024fa:	d101      	bne.n	8002500 <pwmInit+0x50>
 80024fc:	2308      	movs	r3, #8
 80024fe:	e000      	b.n	8002502 <pwmInit+0x52>
 8002500:	2300      	movs	r3, #0
 8002502:	74fb      	strb	r3, [r7, #19]

	// 1.      (OCxM  3 )
	*CCMRx &= ~(0x7 << (shift + 4));
 8002504:	697b      	ldr	r3, [r7, #20]
 8002506:	681b      	ldr	r3, [r3, #0]
 8002508:	7cfa      	ldrb	r2, [r7, #19]
 800250a:	3204      	adds	r2, #4
 800250c:	2107      	movs	r1, #7
 800250e:	fa01 f202 	lsl.w	r2, r1, r2
 8002512:	43d2      	mvns	r2, r2
 8002514:	401a      	ands	r2, r3
 8002516:	697b      	ldr	r3, [r7, #20]
 8002518:	601a      	str	r2, [r3, #0]

	// 2.  PWM Mode 1 ( 110,  6)
	*CCMRx |= (6 << (shift + 4));
 800251a:	697b      	ldr	r3, [r7, #20]
 800251c:	681b      	ldr	r3, [r3, #0]
 800251e:	7cfa      	ldrb	r2, [r7, #19]
 8002520:	3204      	adds	r2, #4
 8002522:	2106      	movs	r1, #6
 8002524:	fa01 f202 	lsl.w	r2, r1, r2
 8002528:	431a      	orrs	r2, r3
 800252a:	697b      	ldr	r3, [r7, #20]
 800252c:	601a      	str	r2, [r3, #0]

	// 3.  Preload (OCxPE  3-    )
	*CCMRx |= (1 << (shift + 3));
 800252e:	697b      	ldr	r3, [r7, #20]
 8002530:	681b      	ldr	r3, [r3, #0]
 8002532:	7cfa      	ldrb	r2, [r7, #19]
 8002534:	3203      	adds	r2, #3
 8002536:	2101      	movs	r1, #1
 8002538:	fa01 f202 	lsl.w	r2, r1, r2
 800253c:	431a      	orrs	r2, r3
 800253e:	697b      	ldr	r3, [r7, #20]
 8002540:	601a      	str	r2, [r3, #0]
//	*CCMRx &= ~(CCMR_OCxM[channel]);
//	*CCMRx |= (6 << CCMR_OCxPos[channel]);
	*CCMRx |= (CCMR_OCxPE[channel]);
 8002542:	697b      	ldr	r3, [r7, #20]
 8002544:	681a      	ldr	r2, [r3, #0]
 8002546:	7efb      	ldrb	r3, [r7, #27]
 8002548:	4909      	ldr	r1, [pc, #36]	@ (8002570 <pwmInit+0xc0>)
 800254a:	f851 3023 	ldr.w	r3, [r1, r3, lsl #2]
 800254e:	431a      	orrs	r2, r3
 8002550:	697b      	ldr	r3, [r7, #20]
 8002552:	601a      	str	r2, [r3, #0]
	TIMx->CCER |= (CCER_CCxE[channel]);
 8002554:	69fb      	ldr	r3, [r7, #28]
 8002556:	6a1a      	ldr	r2, [r3, #32]
 8002558:	7efb      	ldrb	r3, [r7, #27]
 800255a:	4906      	ldr	r1, [pc, #24]	@ (8002574 <pwmInit+0xc4>)
 800255c:	f851 3023 	ldr.w	r3, [r1, r3, lsl #2]
 8002560:	431a      	orrs	r2, r3
 8002562:	69fb      	ldr	r3, [r7, #28]
 8002564:	621a      	str	r2, [r3, #32]
 8002566:	e000      	b.n	800256a <pwmInit+0xba>
	if(pin_metadata.TIMx == NULL) return;
 8002568:	bf00      	nop
}
 800256a:	3720      	adds	r7, #32
 800256c:	46bd      	mov	sp, r7
 800256e:	bd80      	pop	{r7, pc}
 8002570:	0800356c 	.word	0x0800356c
 8002574:	0800357c 	.word	0x0800357c

08002578 <pwmWrite>:


void pwmWrite(Pin_t pin, uint16_t value){
 8002578:	b580      	push	{r7, lr}
 800257a:	b08c      	sub	sp, #48	@ 0x30
 800257c:	af00      	add	r7, sp, #0
 800257e:	f107 0308 	add.w	r3, r7, #8
 8002582:	e883 0003 	stmia.w	r3, {r0, r1}
 8002586:	4613      	mov	r3, r2
 8002588:	80fb      	strh	r3, [r7, #6]
	TimerChannel_t pin_metadata = getTIMChannel(pin); 
 800258a:	f107 0020 	add.w	r0, r7, #32
 800258e:	f107 0308 	add.w	r3, r7, #8
 8002592:	e893 0006 	ldmia.w	r3, {r1, r2}
 8002596:	f000 f82d 	bl	80025f4 <getTIMChannel>
	TIM_TypeDef *TIMx = pin_metadata.TIMx;
 800259a:	6a3b      	ldr	r3, [r7, #32]
 800259c:	62fb      	str	r3, [r7, #44]	@ 0x2c
	uint8_t channel = pin_metadata.channel;
 800259e:	f897 3024 	ldrb.w	r3, [r7, #36]	@ 0x24
 80025a2:	f887 302b 	strb.w	r3, [r7, #43]	@ 0x2b
	__IO uint32_t *CCRs[4] = {&TIMx->CCR1, &TIMx->CCR2, &TIMx->CCR3, &TIMx->CCR4};
 80025a6:	6afb      	ldr	r3, [r7, #44]	@ 0x2c
 80025a8:	3334      	adds	r3, #52	@ 0x34
 80025aa:	613b      	str	r3, [r7, #16]
 80025ac:	6afb      	ldr	r3, [r7, #44]	@ 0x2c
 80025ae:	3338      	adds	r3, #56	@ 0x38
 80025b0:	617b      	str	r3, [r7, #20]
 80025b2:	6afb      	ldr	r3, [r7, #44]	@ 0x2c
 80025b4:	333c      	adds	r3, #60	@ 0x3c
 80025b6:	61bb      	str	r3, [r7, #24]
 80025b8:	6afb      	ldr	r3, [r7, #44]	@ 0x2c
 80025ba:	3340      	adds	r3, #64	@ 0x40
 80025bc:	61fb      	str	r3, [r7, #28]
	if((channel > 0) && (channel < 5) && (value <= TIMx->ARR)){
 80025be:	f897 302b 	ldrb.w	r3, [r7, #43]	@ 0x2b
 80025c2:	2b00      	cmp	r3, #0
 80025c4:	d012      	beq.n	80025ec <pwmWrite+0x74>
 80025c6:	f897 302b 	ldrb.w	r3, [r7, #43]	@ 0x2b
 80025ca:	2b04      	cmp	r3, #4
 80025cc:	d80e      	bhi.n	80025ec <pwmWrite+0x74>
 80025ce:	88fa      	ldrh	r2, [r7, #6]
 80025d0:	6afb      	ldr	r3, [r7, #44]	@ 0x2c
 80025d2:	6adb      	ldr	r3, [r3, #44]	@ 0x2c
 80025d4:	429a      	cmp	r2, r3
 80025d6:	d809      	bhi.n	80025ec <pwmWrite+0x74>
		*CCRs[channel - 1] = value;
 80025d8:	f897 302b 	ldrb.w	r3, [r7, #43]	@ 0x2b
 80025dc:	3b01      	subs	r3, #1
 80025de:	009b      	lsls	r3, r3, #2
 80025e0:	3330      	adds	r3, #48	@ 0x30
 80025e2:	443b      	add	r3, r7
 80025e4:	f853 3c20 	ldr.w	r3, [r3, #-32]
 80025e8:	88fa      	ldrh	r2, [r7, #6]
 80025ea:	601a      	str	r2, [r3, #0]
	}
}
 80025ec:	bf00      	nop
 80025ee:	3730      	adds	r7, #48	@ 0x30
 80025f0:	46bd      	mov	sp, r7
 80025f2:	bd80      	pop	{r7, pc}

080025f4 <getTIMChannel>:

TimerChannel_t getTIMChannel(Pin_t pin){
 80025f4:	b480      	push	{r7}
 80025f6:	b089      	sub	sp, #36	@ 0x24
 80025f8:	af00      	add	r7, sp, #0
 80025fa:	60f8      	str	r0, [r7, #12]
 80025fc:	1d3b      	adds	r3, r7, #4
 80025fe:	e883 0006 	stmia.w	r3, {r1, r2}
	TimerChannel_t result = {NULL, 0};
 8002602:	2300      	movs	r3, #0
 8002604:	617b      	str	r3, [r7, #20]
 8002606:	2300      	movs	r3, #0
 8002608:	763b      	strb	r3, [r7, #24]
	for(int i = 0; i < 13; i++){
 800260a:	2300      	movs	r3, #0
 800260c:	61fb      	str	r3, [r7, #28]
 800260e:	e02a      	b.n	8002666 <getTIMChannel+0x72>
		if((map[i].pin.port == pin.port) && ( map[i].pin.number == pin.number)){
 8002610:	4a1d      	ldr	r2, [pc, #116]	@ (8002688 <getTIMChannel+0x94>)
 8002612:	69fb      	ldr	r3, [r7, #28]
 8002614:	011b      	lsls	r3, r3, #4
 8002616:	4413      	add	r3, r2
 8002618:	681a      	ldr	r2, [r3, #0]
 800261a:	687b      	ldr	r3, [r7, #4]
 800261c:	429a      	cmp	r2, r3
 800261e:	d11f      	bne.n	8002660 <getTIMChannel+0x6c>
 8002620:	4a19      	ldr	r2, [pc, #100]	@ (8002688 <getTIMChannel+0x94>)
 8002622:	69fb      	ldr	r3, [r7, #28]
 8002624:	011b      	lsls	r3, r3, #4
 8002626:	4413      	add	r3, r2
 8002628:	3304      	adds	r3, #4
 800262a:	781a      	ldrb	r2, [r3, #0]
 800262c:	7a3b      	ldrb	r3, [r7, #8]
 800262e:	429a      	cmp	r2, r3
 8002630:	d116      	bne.n	8002660 <getTIMChannel+0x6c>
			result.TIMx = map[i].TIMx; 
 8002632:	4a15      	ldr	r2, [pc, #84]	@ (8002688 <getTIMChannel+0x94>)
 8002634:	69fb      	ldr	r3, [r7, #28]
 8002636:	011b      	lsls	r3, r3, #4
 8002638:	4413      	add	r3, r2
 800263a:	3308      	adds	r3, #8
 800263c:	681b      	ldr	r3, [r3, #0]
 800263e:	617b      	str	r3, [r7, #20]
			result.channel = map[i].channel;
 8002640:	4a11      	ldr	r2, [pc, #68]	@ (8002688 <getTIMChannel+0x94>)
 8002642:	69fb      	ldr	r3, [r7, #28]
 8002644:	011b      	lsls	r3, r3, #4
 8002646:	4413      	add	r3, r2
 8002648:	330c      	adds	r3, #12
 800264a:	781b      	ldrb	r3, [r3, #0]
 800264c:	763b      	strb	r3, [r7, #24]
			return result;
 800264e:	68fb      	ldr	r3, [r7, #12]
 8002650:	461a      	mov	r2, r3
 8002652:	f107 0314 	add.w	r3, r7, #20
 8002656:	e893 0003 	ldmia.w	r3, {r0, r1}
 800265a:	e882 0003 	stmia.w	r2, {r0, r1}
 800265e:	e00d      	b.n	800267c <getTIMChannel+0x88>
	for(int i = 0; i < 13; i++){
 8002660:	69fb      	ldr	r3, [r7, #28]
 8002662:	3301      	adds	r3, #1
 8002664:	61fb      	str	r3, [r7, #28]
 8002666:	69fb      	ldr	r3, [r7, #28]
 8002668:	2b0c      	cmp	r3, #12
 800266a:	ddd1      	ble.n	8002610 <getTIMChannel+0x1c>
		}
	}

	return result;
 800266c:	68fb      	ldr	r3, [r7, #12]
 800266e:	461a      	mov	r2, r3
 8002670:	f107 0314 	add.w	r3, r7, #20
 8002674:	e893 0003 	ldmia.w	r3, {r0, r1}
 8002678:	e882 0003 	stmia.w	r2, {r0, r1}
}
 800267c:	68f8      	ldr	r0, [r7, #12]
 800267e:	3724      	adds	r7, #36	@ 0x24
 8002680:	46bd      	mov	sp, r7
 8002682:	bc80      	pop	{r7}
 8002684:	4770      	bx	lr
 8002686:	bf00      	nop
 8002688:	20000074 	.word	0x20000074

0800268c <__NVIC_EnableIRQ>:
{
 800268c:	b480      	push	{r7}
 800268e:	b083      	sub	sp, #12
 8002690:	af00      	add	r7, sp, #0
 8002692:	4603      	mov	r3, r0
 8002694:	71fb      	strb	r3, [r7, #7]
  if ((int32_t)(IRQn) >= 0)
 8002696:	f997 3007 	ldrsb.w	r3, [r7, #7]
 800269a:	2b00      	cmp	r3, #0
 800269c:	db0b      	blt.n	80026b6 <__NVIC_EnableIRQ+0x2a>
    NVIC->ISER[(((uint32_t)IRQn) >> 5UL)] = (uint32_t)(1UL << (((uint32_t)IRQn) & 0x1FUL));
 800269e:	79fb      	ldrb	r3, [r7, #7]
 80026a0:	f003 021f 	and.w	r2, r3, #31
 80026a4:	4906      	ldr	r1, [pc, #24]	@ (80026c0 <__NVIC_EnableIRQ+0x34>)
 80026a6:	f997 3007 	ldrsb.w	r3, [r7, #7]
 80026aa:	095b      	lsrs	r3, r3, #5
 80026ac:	2001      	movs	r0, #1
 80026ae:	fa00 f202 	lsl.w	r2, r0, r2
 80026b2:	f841 2023 	str.w	r2, [r1, r3, lsl #2]
}
 80026b6:	bf00      	nop
 80026b8:	370c      	adds	r7, #12
 80026ba:	46bd      	mov	sp, r7
 80026bc:	bc80      	pop	{r7}
 80026be:	4770      	bx	lr
 80026c0:	e000e100 	.word	0xe000e100

080026c4 <softUartInit>:
static SoftUartRxState_t rx_state = {0};
static SoftUartTxState_t tx_state = {0};
Pin_t soft_uart_rx_pin,
      soft_uart_tx_pin;

void softUartInit(Pin_t rx, Pin_t tx, uint32_t baud_rate){
 80026c4:	b590      	push	{r4, r7, lr}
 80026c6:	b089      	sub	sp, #36	@ 0x24
 80026c8:	af02      	add	r7, sp, #8
 80026ca:	f107 0408 	add.w	r4, r7, #8
 80026ce:	e884 0003 	stmia.w	r4, {r0, r1}
 80026d2:	4639      	mov	r1, r7
 80026d4:	e881 000c 	stmia.w	r1, {r2, r3}
    pinMode(tx, GPIO_MODE_OUTPUT_50MHz, GPIO_CNF_PUSH_PULL, 0);
 80026d8:	2300      	movs	r3, #0
 80026da:	9300      	str	r3, [sp, #0]
 80026dc:	2300      	movs	r3, #0
 80026de:	2203      	movs	r2, #3
 80026e0:	4639      	mov	r1, r7
 80026e2:	c903      	ldmia	r1, {r0, r1}
 80026e4:	f7ff fcd8 	bl	8002098 <pinMode>
    pinMode(rx, GPIO_MODE_INPUT, GPIO_CNF_INPUT_PU_PD, 1);
 80026e8:	2301      	movs	r3, #1
 80026ea:	9300      	str	r3, [sp, #0]
 80026ec:	2302      	movs	r3, #2
 80026ee:	2200      	movs	r2, #0
 80026f0:	f107 0108 	add.w	r1, r7, #8
 80026f4:	c903      	ldmia	r1, {r0, r1}
 80026f6:	f7ff fccf 	bl	8002098 <pinMode>
    uint32_t soft_uart_arr = SYS_CLK_HZ / baud_rate;
 80026fa:	4a22      	ldr	r2, [pc, #136]	@ (8002784 <softUartInit+0xc0>)
 80026fc:	6abb      	ldr	r3, [r7, #40]	@ 0x28
 80026fe:	fbb2 f3f3 	udiv	r3, r2, r3
 8002702:	617b      	str	r3, [r7, #20]
    rx_state.arr_value = soft_uart_arr;
 8002704:	4a20      	ldr	r2, [pc, #128]	@ (8002788 <softUartInit+0xc4>)
 8002706:	697b      	ldr	r3, [r7, #20]
 8002708:	6053      	str	r3, [r2, #4]
    timerInit(SOFT_UART_TIM, 0, soft_uart_arr, 1);
 800270a:	2301      	movs	r3, #1
 800270c:	697a      	ldr	r2, [r7, #20]
 800270e:	2100      	movs	r1, #0
 8002710:	481e      	ldr	r0, [pc, #120]	@ (800278c <softUartInit+0xc8>)
 8002712:	f000 fae9 	bl	8002ce8 <timerInit>
    extiInit(rx, EXTI_FALLING_EDGE);
 8002716:	2201      	movs	r2, #1
 8002718:	f107 0308 	add.w	r3, r7, #8
 800271c:	e893 0003 	ldmia.w	r3, {r0, r1}
 8002720:	f7ff fafc 	bl	8001d1c <extiInit>
    soft_uart_rx_pin = rx;
 8002724:	4b1a      	ldr	r3, [pc, #104]	@ (8002790 <softUartInit+0xcc>)
 8002726:	461a      	mov	r2, r3
 8002728:	f107 0308 	add.w	r3, r7, #8
 800272c:	e893 0003 	ldmia.w	r3, {r0, r1}
 8002730:	e882 0003 	stmia.w	r2, {r0, r1}
    soft_uart_tx_pin = tx;
 8002734:	4b17      	ldr	r3, [pc, #92]	@ (8002794 <softUartInit+0xd0>)
 8002736:	461a      	mov	r2, r3
 8002738:	463b      	mov	r3, r7
 800273a:	e893 0003 	ldmia.w	r3, {r0, r1}
 800273e:	e882 0003 	stmia.w	r2, {r0, r1}
    
    extiRegisterHandler(rx, softUartRxStartHandler);
 8002742:	4a15      	ldr	r2, [pc, #84]	@ (8002798 <softUartInit+0xd4>)
 8002744:	f107 0308 	add.w	r3, r7, #8
 8002748:	e893 0003 	ldmia.w	r3, {r0, r1}
 800274c:	f7ff fb84 	bl	8001e58 <extiRegisterHandler>
    timRegisterHandler(SOFT_UART_TIM, softUartTimDispatch);
 8002750:	4912      	ldr	r1, [pc, #72]	@ (800279c <softUartInit+0xd8>)
 8002752:	480e      	ldr	r0, [pc, #56]	@ (800278c <softUartInit+0xc8>)
 8002754:	f000 fb1e 	bl	8002d94 <timRegisterHandler>

    soft_uart_tx_pin.port->BSRR = (1 << soft_uart_tx_pin.number);
 8002758:	4b0e      	ldr	r3, [pc, #56]	@ (8002794 <softUartInit+0xd0>)
 800275a:	791b      	ldrb	r3, [r3, #4]
 800275c:	461a      	mov	r2, r3
 800275e:	2301      	movs	r3, #1
 8002760:	fa03 f202 	lsl.w	r2, r3, r2
 8002764:	4b0b      	ldr	r3, [pc, #44]	@ (8002794 <softUartInit+0xd0>)
 8002766:	681b      	ldr	r3, [r3, #0]
 8002768:	611a      	str	r2, [r3, #16]
    TIM3->CR1 |= TIM_CR1_CEN;
 800276a:	4b08      	ldr	r3, [pc, #32]	@ (800278c <softUartInit+0xc8>)
 800276c:	681b      	ldr	r3, [r3, #0]
 800276e:	4a07      	ldr	r2, [pc, #28]	@ (800278c <softUartInit+0xc8>)
 8002770:	f043 0301 	orr.w	r3, r3, #1
 8002774:	6013      	str	r3, [r2, #0]
	NVIC_EnableIRQ(TIM3_IRQn);
 8002776:	201d      	movs	r0, #29
 8002778:	f7ff ff88 	bl	800268c <__NVIC_EnableIRQ>
}  
 800277c:	bf00      	nop
 800277e:	371c      	adds	r7, #28
 8002780:	46bd      	mov	sp, r7
 8002782:	bd90      	pop	{r4, r7, pc}
 8002784:	007a1200 	.word	0x007a1200
 8002788:	20000230 	.word	0x20000230
 800278c:	40000400 	.word	0x40000400
 8002790:	2000023c 	.word	0x2000023c
 8002794:	20000244 	.word	0x20000244
 8002798:	080027a1 	.word	0x080027a1
 800279c:	08002b09 	.word	0x08002b09

080027a0 <softUartRxStartHandler>:


static void softUartRxStartHandler(void){
 80027a0:	b480      	push	{r7}
 80027a2:	b083      	sub	sp, #12
 80027a4:	af00      	add	r7, sp, #0
    EXTI->IMR &= ~(1 << soft_uart_rx_pin.number);
 80027a6:	4b1c      	ldr	r3, [pc, #112]	@ (8002818 <softUartRxStartHandler+0x78>)
 80027a8:	681b      	ldr	r3, [r3, #0]
 80027aa:	4a1c      	ldr	r2, [pc, #112]	@ (800281c <softUartRxStartHandler+0x7c>)
 80027ac:	7912      	ldrb	r2, [r2, #4]
 80027ae:	4611      	mov	r1, r2
 80027b0:	2201      	movs	r2, #1
 80027b2:	408a      	lsls	r2, r1
 80027b4:	43d2      	mvns	r2, r2
 80027b6:	4611      	mov	r1, r2
 80027b8:	4a17      	ldr	r2, [pc, #92]	@ (8002818 <softUartRxStartHandler+0x78>)
 80027ba:	400b      	ands	r3, r1
 80027bc:	6013      	str	r3, [r2, #0]

    rx_state.bit_count = 0;
 80027be:	4b18      	ldr	r3, [pc, #96]	@ (8002820 <softUartRxStartHandler+0x80>)
 80027c0:	2200      	movs	r2, #0
 80027c2:	705a      	strb	r2, [r3, #1]
    rx_state.rx_byte = 0;
 80027c4:	4b16      	ldr	r3, [pc, #88]	@ (8002820 <softUartRxStartHandler+0x80>)
 80027c6:	2200      	movs	r2, #0
 80027c8:	701a      	strb	r2, [r3, #0]

    uint32_t sample_time = SOFT_UART_TIM->CNT + (rx_state.arr_value * 3 / 2);
 80027ca:	4b16      	ldr	r3, [pc, #88]	@ (8002824 <softUartRxStartHandler+0x84>)
 80027cc:	6a59      	ldr	r1, [r3, #36]	@ 0x24
 80027ce:	4b14      	ldr	r3, [pc, #80]	@ (8002820 <softUartRxStartHandler+0x80>)
 80027d0:	685a      	ldr	r2, [r3, #4]
 80027d2:	4613      	mov	r3, r2
 80027d4:	005b      	lsls	r3, r3, #1
 80027d6:	4413      	add	r3, r2
 80027d8:	085b      	lsrs	r3, r3, #1
 80027da:	440b      	add	r3, r1
 80027dc:	607b      	str	r3, [r7, #4]

    SOFT_UART_TIM->CCR1  = (uint16_t)(sample_time % (SOFT_UART_TIM->ARR + 1));
 80027de:	4b11      	ldr	r3, [pc, #68]	@ (8002824 <softUartRxStartHandler+0x84>)
 80027e0:	6adb      	ldr	r3, [r3, #44]	@ 0x2c
 80027e2:	1c5a      	adds	r2, r3, #1
 80027e4:	687b      	ldr	r3, [r7, #4]
 80027e6:	fbb3 f1f2 	udiv	r1, r3, r2
 80027ea:	fb01 f202 	mul.w	r2, r1, r2
 80027ee:	1a9b      	subs	r3, r3, r2
 80027f0:	b29a      	uxth	r2, r3
 80027f2:	4b0c      	ldr	r3, [pc, #48]	@ (8002824 <softUartRxStartHandler+0x84>)
 80027f4:	635a      	str	r2, [r3, #52]	@ 0x34

    SOFT_UART_TIM->SR &= ~TIM_SR_CC1IF;
 80027f6:	4b0b      	ldr	r3, [pc, #44]	@ (8002824 <softUartRxStartHandler+0x84>)
 80027f8:	691b      	ldr	r3, [r3, #16]
 80027fa:	4a0a      	ldr	r2, [pc, #40]	@ (8002824 <softUartRxStartHandler+0x84>)
 80027fc:	f023 0302 	bic.w	r3, r3, #2
 8002800:	6113      	str	r3, [r2, #16]
    SOFT_UART_TIM->DIER |= TIM_DIER_CC1IE;
 8002802:	4b08      	ldr	r3, [pc, #32]	@ (8002824 <softUartRxStartHandler+0x84>)
 8002804:	68db      	ldr	r3, [r3, #12]
 8002806:	4a07      	ldr	r2, [pc, #28]	@ (8002824 <softUartRxStartHandler+0x84>)
 8002808:	f043 0302 	orr.w	r3, r3, #2
 800280c:	60d3      	str	r3, [r2, #12]
}
 800280e:	bf00      	nop
 8002810:	370c      	adds	r7, #12
 8002812:	46bd      	mov	sp, r7
 8002814:	bc80      	pop	{r7}
 8002816:	4770      	bx	lr
 8002818:	40010400 	.word	0x40010400
 800281c:	2000023c 	.word	0x2000023c
 8002820:	20000230 	.word	0x20000230
 8002824:	40000400 	.word	0x40000400

08002828 <softUartRxTimHandler>:


static void softUartRxTimHandler(void){
 8002828:	b480      	push	{r7}
 800282a:	b085      	sub	sp, #20
 800282c:	af00      	add	r7, sp, #0
	uint8_t current_bit = (soft_uart_rx_pin.port->IDR & (1 << soft_uart_rx_pin.number)) ? 1 : 0;
 800282e:	4b44      	ldr	r3, [pc, #272]	@ (8002940 <softUartRxTimHandler+0x118>)
 8002830:	681b      	ldr	r3, [r3, #0]
 8002832:	689b      	ldr	r3, [r3, #8]
 8002834:	4a42      	ldr	r2, [pc, #264]	@ (8002940 <softUartRxTimHandler+0x118>)
 8002836:	7912      	ldrb	r2, [r2, #4]
 8002838:	4611      	mov	r1, r2
 800283a:	2201      	movs	r2, #1
 800283c:	408a      	lsls	r2, r1
 800283e:	4013      	ands	r3, r2
 8002840:	2b00      	cmp	r3, #0
 8002842:	bf14      	ite	ne
 8002844:	2301      	movne	r3, #1
 8002846:	2300      	moveq	r3, #0
 8002848:	b2db      	uxtb	r3, r3
 800284a:	73fb      	strb	r3, [r7, #15]

    rx_state.bit_count++;
 800284c:	4b3d      	ldr	r3, [pc, #244]	@ (8002944 <softUartRxTimHandler+0x11c>)
 800284e:	785b      	ldrb	r3, [r3, #1]
 8002850:	3301      	adds	r3, #1
 8002852:	b2da      	uxtb	r2, r3
 8002854:	4b3b      	ldr	r3, [pc, #236]	@ (8002944 <softUartRxTimHandler+0x11c>)
 8002856:	705a      	strb	r2, [r3, #1]

    if(rx_state.bit_count <=8){
 8002858:	4b3a      	ldr	r3, [pc, #232]	@ (8002944 <softUartRxTimHandler+0x11c>)
 800285a:	785b      	ldrb	r3, [r3, #1]
 800285c:	2b08      	cmp	r3, #8
 800285e:	d832      	bhi.n	80028c6 <softUartRxTimHandler+0x9e>
        uint8_t shift_amount = rx_state.bit_count - 1;
 8002860:	4b38      	ldr	r3, [pc, #224]	@ (8002944 <softUartRxTimHandler+0x11c>)
 8002862:	785b      	ldrb	r3, [r3, #1]
 8002864:	3b01      	subs	r3, #1
 8002866:	72fb      	strb	r3, [r7, #11]
        uint8_t bit_mask = (1 << shift_amount);
 8002868:	7afb      	ldrb	r3, [r7, #11]
 800286a:	2201      	movs	r2, #1
 800286c:	fa02 f303 	lsl.w	r3, r2, r3
 8002870:	72bb      	strb	r3, [r7, #10]
        if(current_bit){
 8002872:	7bfb      	ldrb	r3, [r7, #15]
 8002874:	2b00      	cmp	r3, #0
 8002876:	d007      	beq.n	8002888 <softUartRxTimHandler+0x60>
            rx_state.rx_byte |= bit_mask;
 8002878:	4b32      	ldr	r3, [pc, #200]	@ (8002944 <softUartRxTimHandler+0x11c>)
 800287a:	781a      	ldrb	r2, [r3, #0]
 800287c:	7abb      	ldrb	r3, [r7, #10]
 800287e:	4313      	orrs	r3, r2
 8002880:	b2da      	uxtb	r2, r3
 8002882:	4b30      	ldr	r3, [pc, #192]	@ (8002944 <softUartRxTimHandler+0x11c>)
 8002884:	701a      	strb	r2, [r3, #0]
 8002886:	e00b      	b.n	80028a0 <softUartRxTimHandler+0x78>
        }
        else{
            rx_state.rx_byte &= ~bit_mask;
 8002888:	4b2e      	ldr	r3, [pc, #184]	@ (8002944 <softUartRxTimHandler+0x11c>)
 800288a:	781b      	ldrb	r3, [r3, #0]
 800288c:	b25a      	sxtb	r2, r3
 800288e:	f997 300a 	ldrsb.w	r3, [r7, #10]
 8002892:	43db      	mvns	r3, r3
 8002894:	b25b      	sxtb	r3, r3
 8002896:	4013      	ands	r3, r2
 8002898:	b25b      	sxtb	r3, r3
 800289a:	b2da      	uxtb	r2, r3
 800289c:	4b29      	ldr	r3, [pc, #164]	@ (8002944 <softUartRxTimHandler+0x11c>)
 800289e:	701a      	strb	r2, [r3, #0]
        }
        uint32_t next_sample = SOFT_UART_TIM->CCR1 + rx_state.arr_value;
 80028a0:	4b29      	ldr	r3, [pc, #164]	@ (8002948 <softUartRxTimHandler+0x120>)
 80028a2:	6b5a      	ldr	r2, [r3, #52]	@ 0x34
 80028a4:	4b27      	ldr	r3, [pc, #156]	@ (8002944 <softUartRxTimHandler+0x11c>)
 80028a6:	685b      	ldr	r3, [r3, #4]
 80028a8:	4413      	add	r3, r2
 80028aa:	607b      	str	r3, [r7, #4]
        SOFT_UART_TIM->CCR1 = (uint16_t)(next_sample %(SOFT_UART_TIM->ARR + 1));
 80028ac:	4b26      	ldr	r3, [pc, #152]	@ (8002948 <softUartRxTimHandler+0x120>)
 80028ae:	6adb      	ldr	r3, [r3, #44]	@ 0x2c
 80028b0:	1c5a      	adds	r2, r3, #1
 80028b2:	687b      	ldr	r3, [r7, #4]
 80028b4:	fbb3 f1f2 	udiv	r1, r3, r2
 80028b8:	fb01 f202 	mul.w	r2, r1, r2
 80028bc:	1a9b      	subs	r3, r3, r2
 80028be:	b29a      	uxth	r2, r3
 80028c0:	4b21      	ldr	r3, [pc, #132]	@ (8002948 <softUartRxTimHandler+0x120>)
 80028c2:	635a      	str	r2, [r3, #52]	@ 0x34
    	}
    	EXTI->PR = (1 << soft_uart_rx_pin.number);
        EXTI->IMR |= (1 << soft_uart_rx_pin.number);
        rx_state.bit_count = 0;
    }
}
 80028c4:	e037      	b.n	8002936 <softUartRxTimHandler+0x10e>
    	SOFT_UART_TIM->DIER &= ~TIM_DIER_CC1IE;
 80028c6:	4b20      	ldr	r3, [pc, #128]	@ (8002948 <softUartRxTimHandler+0x120>)
 80028c8:	68db      	ldr	r3, [r3, #12]
 80028ca:	4a1f      	ldr	r2, [pc, #124]	@ (8002948 <softUartRxTimHandler+0x120>)
 80028cc:	f023 0302 	bic.w	r3, r3, #2
 80028d0:	60d3      	str	r3, [r2, #12]
    	if(current_bit == 1){
 80028d2:	7bfb      	ldrb	r3, [r7, #15]
 80028d4:	2b01      	cmp	r3, #1
 80028d6:	d118      	bne.n	800290a <softUartRxTimHandler+0xe2>
    		uint16_t next_head = (rx_head + 1) & SOFT_UART_BUFFER_MASK;
 80028d8:	4b1c      	ldr	r3, [pc, #112]	@ (800294c <softUartRxTimHandler+0x124>)
 80028da:	881b      	ldrh	r3, [r3, #0]
 80028dc:	b29b      	uxth	r3, r3
 80028de:	3301      	adds	r3, #1
 80028e0:	b29b      	uxth	r3, r3
 80028e2:	f003 031f 	and.w	r3, r3, #31
 80028e6:	81bb      	strh	r3, [r7, #12]
    		if(next_head != rx_tail){
 80028e8:	4b19      	ldr	r3, [pc, #100]	@ (8002950 <softUartRxTimHandler+0x128>)
 80028ea:	881b      	ldrh	r3, [r3, #0]
 80028ec:	b29b      	uxth	r3, r3
 80028ee:	89ba      	ldrh	r2, [r7, #12]
 80028f0:	429a      	cmp	r2, r3
 80028f2:	d00a      	beq.n	800290a <softUartRxTimHandler+0xe2>
                soft_uart_rx_buffer[rx_head] = rx_state.rx_byte;
 80028f4:	4b15      	ldr	r3, [pc, #84]	@ (800294c <softUartRxTimHandler+0x124>)
 80028f6:	881b      	ldrh	r3, [r3, #0]
 80028f8:	b29b      	uxth	r3, r3
 80028fa:	461a      	mov	r2, r3
 80028fc:	4b11      	ldr	r3, [pc, #68]	@ (8002944 <softUartRxTimHandler+0x11c>)
 80028fe:	7819      	ldrb	r1, [r3, #0]
 8002900:	4b14      	ldr	r3, [pc, #80]	@ (8002954 <softUartRxTimHandler+0x12c>)
 8002902:	5499      	strb	r1, [r3, r2]
                rx_head = next_head;
 8002904:	4a11      	ldr	r2, [pc, #68]	@ (800294c <softUartRxTimHandler+0x124>)
 8002906:	89bb      	ldrh	r3, [r7, #12]
 8002908:	8013      	strh	r3, [r2, #0]
    	EXTI->PR = (1 << soft_uart_rx_pin.number);
 800290a:	4b0d      	ldr	r3, [pc, #52]	@ (8002940 <softUartRxTimHandler+0x118>)
 800290c:	791b      	ldrb	r3, [r3, #4]
 800290e:	461a      	mov	r2, r3
 8002910:	2301      	movs	r3, #1
 8002912:	fa03 f202 	lsl.w	r2, r3, r2
 8002916:	4b10      	ldr	r3, [pc, #64]	@ (8002958 <softUartRxTimHandler+0x130>)
 8002918:	615a      	str	r2, [r3, #20]
        EXTI->IMR |= (1 << soft_uart_rx_pin.number);
 800291a:	4b0f      	ldr	r3, [pc, #60]	@ (8002958 <softUartRxTimHandler+0x130>)
 800291c:	681b      	ldr	r3, [r3, #0]
 800291e:	4a08      	ldr	r2, [pc, #32]	@ (8002940 <softUartRxTimHandler+0x118>)
 8002920:	7912      	ldrb	r2, [r2, #4]
 8002922:	4611      	mov	r1, r2
 8002924:	2201      	movs	r2, #1
 8002926:	408a      	lsls	r2, r1
 8002928:	4611      	mov	r1, r2
 800292a:	4a0b      	ldr	r2, [pc, #44]	@ (8002958 <softUartRxTimHandler+0x130>)
 800292c:	430b      	orrs	r3, r1
 800292e:	6013      	str	r3, [r2, #0]
        rx_state.bit_count = 0;
 8002930:	4b04      	ldr	r3, [pc, #16]	@ (8002944 <softUartRxTimHandler+0x11c>)
 8002932:	2200      	movs	r2, #0
 8002934:	705a      	strb	r2, [r3, #1]
}
 8002936:	bf00      	nop
 8002938:	3714      	adds	r7, #20
 800293a:	46bd      	mov	sp, r7
 800293c:	bc80      	pop	{r7}
 800293e:	4770      	bx	lr
 8002940:	2000023c 	.word	0x2000023c
 8002944:	20000230 	.word	0x20000230
 8002948:	40000400 	.word	0x40000400
 800294c:	2000022a 	.word	0x2000022a
 8002950:	20000228 	.word	0x20000228
 8002954:	200001e8 	.word	0x200001e8
 8002958:	40010400 	.word	0x40010400

0800295c <txSetHigh>:

static inline void txSetHigh(void){
 800295c:	b480      	push	{r7}
 800295e:	af00      	add	r7, sp, #0
    soft_uart_tx_pin.port->BSRR = (1 << soft_uart_tx_pin.number);
 8002960:	4b06      	ldr	r3, [pc, #24]	@ (800297c <txSetHigh+0x20>)
 8002962:	791b      	ldrb	r3, [r3, #4]
 8002964:	461a      	mov	r2, r3
 8002966:	2301      	movs	r3, #1
 8002968:	fa03 f202 	lsl.w	r2, r3, r2
 800296c:	4b03      	ldr	r3, [pc, #12]	@ (800297c <txSetHigh+0x20>)
 800296e:	681b      	ldr	r3, [r3, #0]
 8002970:	611a      	str	r2, [r3, #16]
}
 8002972:	bf00      	nop
 8002974:	46bd      	mov	sp, r7
 8002976:	bc80      	pop	{r7}
 8002978:	4770      	bx	lr
 800297a:	bf00      	nop
 800297c:	20000244 	.word	0x20000244

08002980 <txSetLow>:


static inline void txSetLow(void){
 8002980:	b480      	push	{r7}
 8002982:	af00      	add	r7, sp, #0
    soft_uart_tx_pin.port->BRR = (1 << soft_uart_tx_pin.number);
 8002984:	4b06      	ldr	r3, [pc, #24]	@ (80029a0 <txSetLow+0x20>)
 8002986:	791b      	ldrb	r3, [r3, #4]
 8002988:	461a      	mov	r2, r3
 800298a:	2301      	movs	r3, #1
 800298c:	fa03 f202 	lsl.w	r2, r3, r2
 8002990:	4b03      	ldr	r3, [pc, #12]	@ (80029a0 <txSetLow+0x20>)
 8002992:	681b      	ldr	r3, [r3, #0]
 8002994:	615a      	str	r2, [r3, #20]
}
 8002996:	bf00      	nop
 8002998:	46bd      	mov	sp, r7
 800299a:	bc80      	pop	{r7}
 800299c:	4770      	bx	lr
 800299e:	bf00      	nop
 80029a0:	20000244 	.word	0x20000244

080029a4 <softUartTxTimHandler>:


static void softUartTxTimHandler(void){
 80029a4:	b580      	push	{r7, lr}
 80029a6:	b082      	sub	sp, #8
 80029a8:	af00      	add	r7, sp, #0
    if(tx_state.bit_count == 0){
 80029aa:	4b22      	ldr	r3, [pc, #136]	@ (8002a34 <softUartTxTimHandler+0x90>)
 80029ac:	785b      	ldrb	r3, [r3, #1]
 80029ae:	2b00      	cmp	r3, #0
 80029b0:	d102      	bne.n	80029b8 <softUartTxTimHandler+0x14>
        txSetLow();
 80029b2:	f7ff ffe5 	bl	8002980 <txSetLow>
 80029b6:	e033      	b.n	8002a20 <softUartTxTimHandler+0x7c>
    }
    else if(tx_state.bit_count >= 1 && tx_state.bit_count <=8){
 80029b8:	4b1e      	ldr	r3, [pc, #120]	@ (8002a34 <softUartTxTimHandler+0x90>)
 80029ba:	785b      	ldrb	r3, [r3, #1]
 80029bc:	2b00      	cmp	r3, #0
 80029be:	d017      	beq.n	80029f0 <softUartTxTimHandler+0x4c>
 80029c0:	4b1c      	ldr	r3, [pc, #112]	@ (8002a34 <softUartTxTimHandler+0x90>)
 80029c2:	785b      	ldrb	r3, [r3, #1]
 80029c4:	2b08      	cmp	r3, #8
 80029c6:	d813      	bhi.n	80029f0 <softUartTxTimHandler+0x4c>
        uint8_t bit_index = tx_state.bit_count - 1;
 80029c8:	4b1a      	ldr	r3, [pc, #104]	@ (8002a34 <softUartTxTimHandler+0x90>)
 80029ca:	785b      	ldrb	r3, [r3, #1]
 80029cc:	3b01      	subs	r3, #1
 80029ce:	71fb      	strb	r3, [r7, #7]
        if(tx_state.tx_byte & (1 << bit_index)){
 80029d0:	4b18      	ldr	r3, [pc, #96]	@ (8002a34 <softUartTxTimHandler+0x90>)
 80029d2:	781b      	ldrb	r3, [r3, #0]
 80029d4:	461a      	mov	r2, r3
 80029d6:	79fb      	ldrb	r3, [r7, #7]
 80029d8:	fa42 f303 	asr.w	r3, r2, r3
 80029dc:	f003 0301 	and.w	r3, r3, #1
 80029e0:	2b00      	cmp	r3, #0
 80029e2:	d002      	beq.n	80029ea <softUartTxTimHandler+0x46>
            txSetHigh();
 80029e4:	f7ff ffba 	bl	800295c <txSetHigh>
    else if(tx_state.bit_count >= 1 && tx_state.bit_count <=8){
 80029e8:	e01a      	b.n	8002a20 <softUartTxTimHandler+0x7c>
        }
        else{
            txSetLow();
 80029ea:	f7ff ffc9 	bl	8002980 <txSetLow>
    else if(tx_state.bit_count >= 1 && tx_state.bit_count <=8){
 80029ee:	e017      	b.n	8002a20 <softUartTxTimHandler+0x7c>
        }
    }
    else if(tx_state.bit_count == 9){
 80029f0:	4b10      	ldr	r3, [pc, #64]	@ (8002a34 <softUartTxTimHandler+0x90>)
 80029f2:	785b      	ldrb	r3, [r3, #1]
 80029f4:	2b09      	cmp	r3, #9
 80029f6:	d102      	bne.n	80029fe <softUartTxTimHandler+0x5a>
        txSetHigh();
 80029f8:	f7ff ffb0 	bl	800295c <txSetHigh>
 80029fc:	e010      	b.n	8002a20 <softUartTxTimHandler+0x7c>
    }
    else if(tx_state.bit_count == 10){
 80029fe:	4b0d      	ldr	r3, [pc, #52]	@ (8002a34 <softUartTxTimHandler+0x90>)
 8002a00:	785b      	ldrb	r3, [r3, #1]
 8002a02:	2b0a      	cmp	r3, #10
 8002a04:	d10c      	bne.n	8002a20 <softUartTxTimHandler+0x7c>
//        SOFT_UART_TIM->CR1 &= ~TIM_CR1_CEN;
        tx_state.tx_busy = 0;
 8002a06:	4b0b      	ldr	r3, [pc, #44]	@ (8002a34 <softUartTxTimHandler+0x90>)
 8002a08:	2200      	movs	r2, #0
 8002a0a:	709a      	strb	r2, [r3, #2]
        if(tx_head != tx_tail){
 8002a0c:	4b0a      	ldr	r3, [pc, #40]	@ (8002a38 <softUartTxTimHandler+0x94>)
 8002a0e:	881b      	ldrh	r3, [r3, #0]
 8002a10:	b29a      	uxth	r2, r3
 8002a12:	4b0a      	ldr	r3, [pc, #40]	@ (8002a3c <softUartTxTimHandler+0x98>)
 8002a14:	881b      	ldrh	r3, [r3, #0]
 8002a16:	b29b      	uxth	r3, r3
 8002a18:	429a      	cmp	r2, r3
 8002a1a:	d001      	beq.n	8002a20 <softUartTxTimHandler+0x7c>
            softUartStartTx();
 8002a1c:	f000 f810 	bl	8002a40 <softUartStartTx>
        }
    }
    tx_state.bit_count++;
 8002a20:	4b04      	ldr	r3, [pc, #16]	@ (8002a34 <softUartTxTimHandler+0x90>)
 8002a22:	785b      	ldrb	r3, [r3, #1]
 8002a24:	3301      	adds	r3, #1
 8002a26:	b2da      	uxtb	r2, r3
 8002a28:	4b02      	ldr	r3, [pc, #8]	@ (8002a34 <softUartTxTimHandler+0x90>)
 8002a2a:	705a      	strb	r2, [r3, #1]
}
 8002a2c:	bf00      	nop
 8002a2e:	3708      	adds	r7, #8
 8002a30:	46bd      	mov	sp, r7
 8002a32:	bd80      	pop	{r7, pc}
 8002a34:	20000238 	.word	0x20000238
 8002a38:	2000022e 	.word	0x2000022e
 8002a3c:	2000022c 	.word	0x2000022c

08002a40 <softUartStartTx>:


static void softUartStartTx(void){
 8002a40:	b480      	push	{r7}
 8002a42:	af00      	add	r7, sp, #0
    if(tx_head == tx_tail) return;
 8002a44:	4b12      	ldr	r3, [pc, #72]	@ (8002a90 <softUartStartTx+0x50>)
 8002a46:	881b      	ldrh	r3, [r3, #0]
 8002a48:	b29a      	uxth	r2, r3
 8002a4a:	4b12      	ldr	r3, [pc, #72]	@ (8002a94 <softUartStartTx+0x54>)
 8002a4c:	881b      	ldrh	r3, [r3, #0]
 8002a4e:	b29b      	uxth	r3, r3
 8002a50:	429a      	cmp	r2, r3
 8002a52:	d019      	beq.n	8002a88 <softUartStartTx+0x48>

    tx_state.tx_byte = soft_uart_tx_buffer[tx_tail];
 8002a54:	4b0f      	ldr	r3, [pc, #60]	@ (8002a94 <softUartStartTx+0x54>)
 8002a56:	881b      	ldrh	r3, [r3, #0]
 8002a58:	b29b      	uxth	r3, r3
 8002a5a:	461a      	mov	r2, r3
 8002a5c:	4b0e      	ldr	r3, [pc, #56]	@ (8002a98 <softUartStartTx+0x58>)
 8002a5e:	5c9b      	ldrb	r3, [r3, r2]
 8002a60:	b2da      	uxtb	r2, r3
 8002a62:	4b0e      	ldr	r3, [pc, #56]	@ (8002a9c <softUartStartTx+0x5c>)
 8002a64:	701a      	strb	r2, [r3, #0]
    tx_tail = (tx_tail + 1) & SOFT_UART_BUFFER_MASK;
 8002a66:	4b0b      	ldr	r3, [pc, #44]	@ (8002a94 <softUartStartTx+0x54>)
 8002a68:	881b      	ldrh	r3, [r3, #0]
 8002a6a:	b29b      	uxth	r3, r3
 8002a6c:	3301      	adds	r3, #1
 8002a6e:	b29b      	uxth	r3, r3
 8002a70:	f003 031f 	and.w	r3, r3, #31
 8002a74:	b29a      	uxth	r2, r3
 8002a76:	4b07      	ldr	r3, [pc, #28]	@ (8002a94 <softUartStartTx+0x54>)
 8002a78:	801a      	strh	r2, [r3, #0]

    tx_state.bit_count = 0;
 8002a7a:	4b08      	ldr	r3, [pc, #32]	@ (8002a9c <softUartStartTx+0x5c>)
 8002a7c:	2200      	movs	r2, #0
 8002a7e:	705a      	strb	r2, [r3, #1]
    tx_state.tx_busy = 1;
 8002a80:	4b06      	ldr	r3, [pc, #24]	@ (8002a9c <softUartStartTx+0x5c>)
 8002a82:	2201      	movs	r2, #1
 8002a84:	709a      	strb	r2, [r3, #2]
 8002a86:	e000      	b.n	8002a8a <softUartStartTx+0x4a>
    if(tx_head == tx_tail) return;
 8002a88:	bf00      	nop
}
 8002a8a:	46bd      	mov	sp, r7
 8002a8c:	bc80      	pop	{r7}
 8002a8e:	4770      	bx	lr
 8002a90:	2000022e 	.word	0x2000022e
 8002a94:	2000022c 	.word	0x2000022c
 8002a98:	20000208 	.word	0x20000208
 8002a9c:	20000238 	.word	0x20000238

08002aa0 <softUartPutChar>:


void softUartPutChar(char data){
 8002aa0:	b580      	push	{r7, lr}
 8002aa2:	b084      	sub	sp, #16
 8002aa4:	af00      	add	r7, sp, #0
 8002aa6:	4603      	mov	r3, r0
 8002aa8:	71fb      	strb	r3, [r7, #7]
  __ASM volatile ("cpsid i" : : : "memory");
 8002aaa:	b672      	cpsid	i
}
 8002aac:	bf00      	nop
    __disable_irq();
	uint16_t next_head = (tx_head + 1) & SOFT_UART_BUFFER_MASK;
 8002aae:	4b12      	ldr	r3, [pc, #72]	@ (8002af8 <softUartPutChar+0x58>)
 8002ab0:	881b      	ldrh	r3, [r3, #0]
 8002ab2:	b29b      	uxth	r3, r3
 8002ab4:	3301      	adds	r3, #1
 8002ab6:	b29b      	uxth	r3, r3
 8002ab8:	f003 031f 	and.w	r3, r3, #31
 8002abc:	81fb      	strh	r3, [r7, #14]

    if(next_head != tx_tail){
 8002abe:	4b0f      	ldr	r3, [pc, #60]	@ (8002afc <softUartPutChar+0x5c>)
 8002ac0:	881b      	ldrh	r3, [r3, #0]
 8002ac2:	b29b      	uxth	r3, r3
 8002ac4:	89fa      	ldrh	r2, [r7, #14]
 8002ac6:	429a      	cmp	r2, r3
 8002ac8:	d009      	beq.n	8002ade <softUartPutChar+0x3e>
        soft_uart_tx_buffer[tx_head] = data;
 8002aca:	4b0b      	ldr	r3, [pc, #44]	@ (8002af8 <softUartPutChar+0x58>)
 8002acc:	881b      	ldrh	r3, [r3, #0]
 8002ace:	b29b      	uxth	r3, r3
 8002ad0:	4619      	mov	r1, r3
 8002ad2:	4a0b      	ldr	r2, [pc, #44]	@ (8002b00 <softUartPutChar+0x60>)
 8002ad4:	79fb      	ldrb	r3, [r7, #7]
 8002ad6:	5453      	strb	r3, [r2, r1]
        tx_head = next_head;
 8002ad8:	4a07      	ldr	r2, [pc, #28]	@ (8002af8 <softUartPutChar+0x58>)
 8002ada:	89fb      	ldrh	r3, [r7, #14]
 8002adc:	8013      	strh	r3, [r2, #0]
    }

    if(!tx_state.tx_busy){
 8002ade:	4b09      	ldr	r3, [pc, #36]	@ (8002b04 <softUartPutChar+0x64>)
 8002ae0:	789b      	ldrb	r3, [r3, #2]
 8002ae2:	2b00      	cmp	r3, #0
 8002ae4:	d101      	bne.n	8002aea <softUartPutChar+0x4a>
        softUartStartTx();
 8002ae6:	f7ff ffab 	bl	8002a40 <softUartStartTx>
  __ASM volatile ("cpsie i" : : : "memory");
 8002aea:	b662      	cpsie	i
}
 8002aec:	bf00      	nop
    }
    __enable_irq();
}
 8002aee:	bf00      	nop
 8002af0:	3710      	adds	r7, #16
 8002af2:	46bd      	mov	sp, r7
 8002af4:	bd80      	pop	{r7, pc}
 8002af6:	bf00      	nop
 8002af8:	2000022e 	.word	0x2000022e
 8002afc:	2000022c 	.word	0x2000022c
 8002b00:	20000208 	.word	0x20000208
 8002b04:	20000238 	.word	0x20000238

08002b08 <softUartTimDispatch>:
		data++;
	}
}


static void softUartTimDispatch(void){
 8002b08:	b580      	push	{r7, lr}
 8002b0a:	af00      	add	r7, sp, #0
    if(SOFT_UART_TIM->SR & TIM_SR_CC1IF){
 8002b0c:	4b15      	ldr	r3, [pc, #84]	@ (8002b64 <softUartTimDispatch+0x5c>)
 8002b0e:	691b      	ldr	r3, [r3, #16]
 8002b10:	f003 0302 	and.w	r3, r3, #2
 8002b14:	2b00      	cmp	r3, #0
 8002b16:	d011      	beq.n	8002b3c <softUartTimDispatch+0x34>
    	SOFT_UART_TIM->SR &= ~TIM_SR_CC1IF;
 8002b18:	4b12      	ldr	r3, [pc, #72]	@ (8002b64 <softUartTimDispatch+0x5c>)
 8002b1a:	691b      	ldr	r3, [r3, #16]
 8002b1c:	4a11      	ldr	r2, [pc, #68]	@ (8002b64 <softUartTimDispatch+0x5c>)
 8002b1e:	f023 0302 	bic.w	r3, r3, #2
 8002b22:	6113      	str	r3, [r2, #16]
    	if((EXTI->IMR & (1 << soft_uart_rx_pin.number)) == 0){
 8002b24:	4b10      	ldr	r3, [pc, #64]	@ (8002b68 <softUartTimDispatch+0x60>)
 8002b26:	681b      	ldr	r3, [r3, #0]
 8002b28:	4a10      	ldr	r2, [pc, #64]	@ (8002b6c <softUartTimDispatch+0x64>)
 8002b2a:	7912      	ldrb	r2, [r2, #4]
 8002b2c:	4611      	mov	r1, r2
 8002b2e:	2201      	movs	r2, #1
 8002b30:	408a      	lsls	r2, r1
 8002b32:	4013      	ands	r3, r2
 8002b34:	2b00      	cmp	r3, #0
 8002b36:	d101      	bne.n	8002b3c <softUartTimDispatch+0x34>
    		softUartRxTimHandler();
 8002b38:	f7ff fe76 	bl	8002828 <softUartRxTimHandler>
    	}
    }
    if(tx_state.tx_busy){
 8002b3c:	4b0c      	ldr	r3, [pc, #48]	@ (8002b70 <softUartTimDispatch+0x68>)
 8002b3e:	789b      	ldrb	r3, [r3, #2]
 8002b40:	2b00      	cmp	r3, #0
 8002b42:	d002      	beq.n	8002b4a <softUartTimDispatch+0x42>
        softUartTxTimHandler();
 8002b44:	f7ff ff2e 	bl	80029a4 <softUartTxTimHandler>
    }
    else if(tx_head != tx_tail){
        softUartStartTx();
    }
}
 8002b48:	e009      	b.n	8002b5e <softUartTimDispatch+0x56>
    else if(tx_head != tx_tail){
 8002b4a:	4b0a      	ldr	r3, [pc, #40]	@ (8002b74 <softUartTimDispatch+0x6c>)
 8002b4c:	881b      	ldrh	r3, [r3, #0]
 8002b4e:	b29a      	uxth	r2, r3
 8002b50:	4b09      	ldr	r3, [pc, #36]	@ (8002b78 <softUartTimDispatch+0x70>)
 8002b52:	881b      	ldrh	r3, [r3, #0]
 8002b54:	b29b      	uxth	r3, r3
 8002b56:	429a      	cmp	r2, r3
 8002b58:	d001      	beq.n	8002b5e <softUartTimDispatch+0x56>
        softUartStartTx();
 8002b5a:	f7ff ff71 	bl	8002a40 <softUartStartTx>
}
 8002b5e:	bf00      	nop
 8002b60:	bd80      	pop	{r7, pc}
 8002b62:	bf00      	nop
 8002b64:	40000400 	.word	0x40000400
 8002b68:	40010400 	.word	0x40010400
 8002b6c:	2000023c 	.word	0x2000023c
 8002b70:	20000238 	.word	0x20000238
 8002b74:	2000022e 	.word	0x2000022e
 8002b78:	2000022c 	.word	0x2000022c

08002b7c <__NVIC_EnableIRQ>:
{
 8002b7c:	b480      	push	{r7}
 8002b7e:	b083      	sub	sp, #12
 8002b80:	af00      	add	r7, sp, #0
 8002b82:	4603      	mov	r3, r0
 8002b84:	71fb      	strb	r3, [r7, #7]
  if ((int32_t)(IRQn) >= 0)
 8002b86:	f997 3007 	ldrsb.w	r3, [r7, #7]
 8002b8a:	2b00      	cmp	r3, #0
 8002b8c:	db0b      	blt.n	8002ba6 <__NVIC_EnableIRQ+0x2a>
    NVIC->ISER[(((uint32_t)IRQn) >> 5UL)] = (uint32_t)(1UL << (((uint32_t)IRQn) & 0x1FUL));
 8002b8e:	79fb      	ldrb	r3, [r7, #7]
 8002b90:	f003 021f 	and.w	r2, r3, #31
 8002b94:	4906      	ldr	r1, [pc, #24]	@ (8002bb0 <__NVIC_EnableIRQ+0x34>)
 8002b96:	f997 3007 	ldrsb.w	r3, [r7, #7]
 8002b9a:	095b      	lsrs	r3, r3, #5
 8002b9c:	2001      	movs	r0, #1
 8002b9e:	fa00 f202 	lsl.w	r2, r0, r2
 8002ba2:	f841 2023 	str.w	r2, [r1, r3, lsl #2]
}
 8002ba6:	bf00      	nop
 8002ba8:	370c      	adds	r7, #12
 8002baa:	46bd      	mov	sp, r7
 8002bac:	bc80      	pop	{r7}
 8002bae:	4770      	bx	lr
 8002bb0:	e000e100 	.word	0xe000e100

08002bb4 <__NVIC_SetPriority>:
  \param [in]      IRQn  Interrupt number.
  \param [in]  priority  Priority to set.
  \note    The priority cannot be set for every processor exception.
 */
__STATIC_INLINE void __NVIC_SetPriority(IRQn_Type IRQn, uint32_t priority)
{
 8002bb4:	b480      	push	{r7}
 8002bb6:	b083      	sub	sp, #12
 8002bb8:	af00      	add	r7, sp, #0
 8002bba:	4603      	mov	r3, r0
 8002bbc:	6039      	str	r1, [r7, #0]
 8002bbe:	71fb      	strb	r3, [r7, #7]
  if ((int32_t)(IRQn) >= 0)
 8002bc0:	f997 3007 	ldrsb.w	r3, [r7, #7]
 8002bc4:	2b00      	cmp	r3, #0
 8002bc6:	db0a      	blt.n	8002bde <__NVIC_SetPriority+0x2a>
  {
    NVIC->IP[((uint32_t)IRQn)]               = (uint8_t)((priority << (8U - __NVIC_PRIO_BITS)) & (uint32_t)0xFFUL);
 8002bc8:	683b      	ldr	r3, [r7, #0]
 8002bca:	b2da      	uxtb	r2, r3
 8002bcc:	490c      	ldr	r1, [pc, #48]	@ (8002c00 <__NVIC_SetPriority+0x4c>)
 8002bce:	f997 3007 	ldrsb.w	r3, [r7, #7]
 8002bd2:	0112      	lsls	r2, r2, #4
 8002bd4:	b2d2      	uxtb	r2, r2
 8002bd6:	440b      	add	r3, r1
 8002bd8:	f883 2300 	strb.w	r2, [r3, #768]	@ 0x300
  }
  else
  {
    SCB->SHP[(((uint32_t)IRQn) & 0xFUL)-4UL] = (uint8_t)((priority << (8U - __NVIC_PRIO_BITS)) & (uint32_t)0xFFUL);
  }
}
 8002bdc:	e00a      	b.n	8002bf4 <__NVIC_SetPriority+0x40>
    SCB->SHP[(((uint32_t)IRQn) & 0xFUL)-4UL] = (uint8_t)((priority << (8U - __NVIC_PRIO_BITS)) & (uint32_t)0xFFUL);
 8002bde:	683b      	ldr	r3, [r7, #0]
 8002be0:	b2da      	uxtb	r2, r3
 8002be2:	4908      	ldr	r1, [pc, #32]	@ (8002c04 <__NVIC_SetPriority+0x50>)
 8002be4:	79fb      	ldrb	r3, [r7, #7]
 8002be6:	f003 030f 	and.w	r3, r3, #15
 8002bea:	3b04      	subs	r3, #4
 8002bec:	0112      	lsls	r2, r2, #4
 8002bee:	b2d2      	uxtb	r2, r2
 8002bf0:	440b      	add	r3, r1
 8002bf2:	761a      	strb	r2, [r3, #24]
}
 8002bf4:	bf00      	nop
 8002bf6:	370c      	adds	r7, #12
 8002bf8:	46bd      	mov	sp, r7
 8002bfa:	bc80      	pop	{r7}
 8002bfc:	4770      	bx	lr
 8002bfe:	bf00      	nop
 8002c00:	e000e100 	.word	0xe000e100
 8002c04:	e000ed00 	.word	0xe000ed00

08002c08 <SysTick_Config>:
  \note    When the variable <b>__Vendor_SysTickConfig</b> is set to 1, then the
           function <b>SysTick_Config</b> is not included. In this case, the file <b><i>device</i>.h</b>
           must contain a vendor-specific implementation of this function.
 */
__STATIC_INLINE uint32_t SysTick_Config(uint32_t ticks)
{
 8002c08:	b580      	push	{r7, lr}
 8002c0a:	b082      	sub	sp, #8
 8002c0c:	af00      	add	r7, sp, #0
 8002c0e:	6078      	str	r0, [r7, #4]
  if ((ticks - 1UL) > SysTick_LOAD_RELOAD_Msk)
 8002c10:	687b      	ldr	r3, [r7, #4]
 8002c12:	3b01      	subs	r3, #1
 8002c14:	f1b3 7f80 	cmp.w	r3, #16777216	@ 0x1000000
 8002c18:	d301      	bcc.n	8002c1e <SysTick_Config+0x16>
  {
    return (1UL);                                                   /* Reload value impossible */
 8002c1a:	2301      	movs	r3, #1
 8002c1c:	e00f      	b.n	8002c3e <SysTick_Config+0x36>
  }

  SysTick->LOAD  = (uint32_t)(ticks - 1UL);                         /* set reload register */
 8002c1e:	4a0a      	ldr	r2, [pc, #40]	@ (8002c48 <SysTick_Config+0x40>)
 8002c20:	687b      	ldr	r3, [r7, #4]
 8002c22:	3b01      	subs	r3, #1
 8002c24:	6053      	str	r3, [r2, #4]
  NVIC_SetPriority (SysTick_IRQn, (1UL << __NVIC_PRIO_BITS) - 1UL); /* set Priority for Systick Interrupt */
 8002c26:	210f      	movs	r1, #15
 8002c28:	f04f 30ff 	mov.w	r0, #4294967295
 8002c2c:	f7ff ffc2 	bl	8002bb4 <__NVIC_SetPriority>
  SysTick->VAL   = 0UL;                                             /* Load the SysTick Counter Value */
 8002c30:	4b05      	ldr	r3, [pc, #20]	@ (8002c48 <SysTick_Config+0x40>)
 8002c32:	2200      	movs	r2, #0
 8002c34:	609a      	str	r2, [r3, #8]
  SysTick->CTRL  = SysTick_CTRL_CLKSOURCE_Msk |
 8002c36:	4b04      	ldr	r3, [pc, #16]	@ (8002c48 <SysTick_Config+0x40>)
 8002c38:	2207      	movs	r2, #7
 8002c3a:	601a      	str	r2, [r3, #0]
                   SysTick_CTRL_TICKINT_Msk   |
                   SysTick_CTRL_ENABLE_Msk;                         /* Enable SysTick IRQ and SysTick Timer */
  return (0UL);                                                     /* Function successful */
 8002c3c:	2300      	movs	r3, #0
}
 8002c3e:	4618      	mov	r0, r3
 8002c40:	3708      	adds	r7, #8
 8002c42:	46bd      	mov	sp, r7
 8002c44:	bd80      	pop	{r7, pc}
 8002c46:	bf00      	nop
 8002c48:	e000e010 	.word	0xe000e010

08002c4c <getTimIndex>:
#include "../inc/tim.h"
volatile uint32_t msTicks = 0;
static TimHandler_t tim_handlers[3] = {NULL, NULL, NULL};

static uint8_t getTimIndex(TIM_TypeDef *TIMx){
 8002c4c:	b480      	push	{r7}
 8002c4e:	b083      	sub	sp, #12
 8002c50:	af00      	add	r7, sp, #0
 8002c52:	6078      	str	r0, [r7, #4]
//	if(TIMx == TIM1) return 0;
	if(TIMx == TIM2) return 1;
 8002c54:	687b      	ldr	r3, [r7, #4]
 8002c56:	f1b3 4f80 	cmp.w	r3, #1073741824	@ 0x40000000
 8002c5a:	d101      	bne.n	8002c60 <getTimIndex+0x14>
 8002c5c:	2301      	movs	r3, #1
 8002c5e:	e006      	b.n	8002c6e <getTimIndex+0x22>
	if(TIMx == TIM3) return 2;
 8002c60:	687b      	ldr	r3, [r7, #4]
 8002c62:	4a05      	ldr	r2, [pc, #20]	@ (8002c78 <getTimIndex+0x2c>)
 8002c64:	4293      	cmp	r3, r2
 8002c66:	d101      	bne.n	8002c6c <getTimIndex+0x20>
 8002c68:	2302      	movs	r3, #2
 8002c6a:	e000      	b.n	8002c6e <getTimIndex+0x22>
	return 99;
 8002c6c:	2363      	movs	r3, #99	@ 0x63
}
 8002c6e:	4618      	mov	r0, r3
 8002c70:	370c      	adds	r7, #12
 8002c72:	46bd      	mov	sp, r7
 8002c74:	bc80      	pop	{r7}
 8002c76:	4770      	bx	lr
 8002c78:	40000400 	.word	0x40000400

08002c7c <sysTickInit>:

void sysTickInit(void){
 8002c7c:	b580      	push	{r7, lr}
 8002c7e:	af00      	add	r7, sp, #0
	SysTick_Config(SYS_CLK_HZ / 1000);
 8002c80:	f44f 50fa 	mov.w	r0, #8000	@ 0x1f40
 8002c84:	f7ff ffc0 	bl	8002c08 <SysTick_Config>
}
 8002c88:	bf00      	nop
 8002c8a:	bd80      	pop	{r7, pc}

08002c8c <millis>:


uint32_t millis(void){
 8002c8c:	b480      	push	{r7}
 8002c8e:	af00      	add	r7, sp, #0
	return msTicks;
 8002c90:	4b02      	ldr	r3, [pc, #8]	@ (8002c9c <millis+0x10>)
 8002c92:	681b      	ldr	r3, [r3, #0]
}
 8002c94:	4618      	mov	r0, r3
 8002c96:	46bd      	mov	sp, r7
 8002c98:	bc80      	pop	{r7}
 8002c9a:	4770      	bx	lr
 8002c9c:	2000024c 	.word	0x2000024c

08002ca0 <SysTick_Handler>:


void SysTick_Handler(void){
 8002ca0:	b480      	push	{r7}
 8002ca2:	af00      	add	r7, sp, #0
	msTicks++;
 8002ca4:	4b04      	ldr	r3, [pc, #16]	@ (8002cb8 <SysTick_Handler+0x18>)
 8002ca6:	681b      	ldr	r3, [r3, #0]
 8002ca8:	3301      	adds	r3, #1
 8002caa:	4a03      	ldr	r2, [pc, #12]	@ (8002cb8 <SysTick_Handler+0x18>)
 8002cac:	6013      	str	r3, [r2, #0]
}
 8002cae:	bf00      	nop
 8002cb0:	46bd      	mov	sp, r7
 8002cb2:	bc80      	pop	{r7}
 8002cb4:	4770      	bx	lr
 8002cb6:	bf00      	nop
 8002cb8:	2000024c 	.word	0x2000024c

08002cbc <sysTickDelay>:


void sysTickDelay(uint32_t ms){
 8002cbc:	b580      	push	{r7, lr}
 8002cbe:	b084      	sub	sp, #16
 8002cc0:	af00      	add	r7, sp, #0
 8002cc2:	6078      	str	r0, [r7, #4]
	uint32_t start = millis();
 8002cc4:	f7ff ffe2 	bl	8002c8c <millis>
 8002cc8:	60f8      	str	r0, [r7, #12]
	while((millis() - start) < ms){
 8002cca:	e000      	b.n	8002cce <sysTickDelay+0x12>
		__NOP();
 8002ccc:	bf00      	nop
	while((millis() - start) < ms){
 8002cce:	f7ff ffdd 	bl	8002c8c <millis>
 8002cd2:	4602      	mov	r2, r0
 8002cd4:	68fb      	ldr	r3, [r7, #12]
 8002cd6:	1ad3      	subs	r3, r2, r3
 8002cd8:	687a      	ldr	r2, [r7, #4]
 8002cda:	429a      	cmp	r2, r3
 8002cdc:	d8f6      	bhi.n	8002ccc <sysTickDelay+0x10>
	}
}
 8002cde:	bf00      	nop
 8002ce0:	bf00      	nop
 8002ce2:	3710      	adds	r7, #16
 8002ce4:	46bd      	mov	sp, r7
 8002ce6:	bd80      	pop	{r7, pc}

08002ce8 <timerInit>:



void timerInit(TIM_TypeDef *TIMx, uint32_t psc, uint32_t arr, uint8_t debounce){
 8002ce8:	b580      	push	{r7, lr}
 8002cea:	b084      	sub	sp, #16
 8002cec:	af00      	add	r7, sp, #0
 8002cee:	60f8      	str	r0, [r7, #12]
 8002cf0:	60b9      	str	r1, [r7, #8]
 8002cf2:	607a      	str	r2, [r7, #4]
 8002cf4:	70fb      	strb	r3, [r7, #3]
//		RCC->APB2ENR |= RCC_APB2ENR_TIM1EN;
//		if(debounce) NVIC_EnableIRQ(TIM1_IRQn);
//	}
//	else

		if(TIMx == TIM2){
 8002cf6:	68fb      	ldr	r3, [r7, #12]
 8002cf8:	f1b3 4f80 	cmp.w	r3, #1073741824	@ 0x40000000
 8002cfc:	d10c      	bne.n	8002d18 <timerInit+0x30>
		RCC->APB1ENR |= RCC_APB1ENR_TIM2EN;
 8002cfe:	4b23      	ldr	r3, [pc, #140]	@ (8002d8c <timerInit+0xa4>)
 8002d00:	69db      	ldr	r3, [r3, #28]
 8002d02:	4a22      	ldr	r2, [pc, #136]	@ (8002d8c <timerInit+0xa4>)
 8002d04:	f043 0301 	orr.w	r3, r3, #1
 8002d08:	61d3      	str	r3, [r2, #28]
		if(debounce) NVIC_EnableIRQ(TIM2_IRQn);
 8002d0a:	78fb      	ldrb	r3, [r7, #3]
 8002d0c:	2b00      	cmp	r3, #0
 8002d0e:	d00d      	beq.n	8002d2c <timerInit+0x44>
 8002d10:	201c      	movs	r0, #28
 8002d12:	f7ff ff33 	bl	8002b7c <__NVIC_EnableIRQ>
 8002d16:	e009      	b.n	8002d2c <timerInit+0x44>
	}
	else if(TIMx == TIM3){
 8002d18:	68fb      	ldr	r3, [r7, #12]
 8002d1a:	4a1d      	ldr	r2, [pc, #116]	@ (8002d90 <timerInit+0xa8>)
 8002d1c:	4293      	cmp	r3, r2
 8002d1e:	d105      	bne.n	8002d2c <timerInit+0x44>
		RCC->APB1ENR |= RCC_APB1ENR_TIM3EN;
 8002d20:	4b1a      	ldr	r3, [pc, #104]	@ (8002d8c <timerInit+0xa4>)
 8002d22:	69db      	ldr	r3, [r3, #28]
 8002d24:	4a19      	ldr	r2, [pc, #100]	@ (8002d8c <timerInit+0xa4>)
 8002d26:	f043 0302 	orr.w	r3, r3, #2
 8002d2a:	61d3      	str	r3, [r2, #28]
//		if(debounce) NVIC_EnableIRQ(TIM3_IRQn); // hard fault,    
	}

	TIMx->PSC = psc;
 8002d2c:	68fb      	ldr	r3, [r7, #12]
 8002d2e:	68ba      	ldr	r2, [r7, #8]
 8002d30:	629a      	str	r2, [r3, #40]	@ 0x28
	TIMx->ARR = arr;
 8002d32:	68fb      	ldr	r3, [r7, #12]
 8002d34:	687a      	ldr	r2, [r7, #4]
 8002d36:	62da      	str	r2, [r3, #44]	@ 0x2c
	TIMx->CNT = 0;
 8002d38:	68fb      	ldr	r3, [r7, #12]
 8002d3a:	2200      	movs	r2, #0
 8002d3c:	625a      	str	r2, [r3, #36]	@ 0x24
	TIMx->DIER |= TIM_DIER_UIE;
 8002d3e:	68fb      	ldr	r3, [r7, #12]
 8002d40:	68db      	ldr	r3, [r3, #12]
 8002d42:	f043 0201 	orr.w	r2, r3, #1
 8002d46:	68fb      	ldr	r3, [r7, #12]
 8002d48:	60da      	str	r2, [r3, #12]

	if(debounce){
 8002d4a:	78fb      	ldrb	r3, [r7, #3]
 8002d4c:	2b00      	cmp	r3, #0
 8002d4e:	d006      	beq.n	8002d5e <timerInit+0x76>
		TIMx->CR1 &= ~TIM_CR1_CEN;
 8002d50:	68fb      	ldr	r3, [r7, #12]
 8002d52:	681b      	ldr	r3, [r3, #0]
 8002d54:	f023 0201 	bic.w	r2, r3, #1
 8002d58:	68fb      	ldr	r3, [r7, #12]
 8002d5a:	601a      	str	r2, [r3, #0]
	else{
		TIMx->CR1 |= TIM_CR1_ARPE;
		TIMx->EGR |= TIM_EGR_UG;
		TIMx->CR1 |= TIM_CR1_CEN;
	}
}
 8002d5c:	e011      	b.n	8002d82 <timerInit+0x9a>
		TIMx->CR1 |= TIM_CR1_ARPE;
 8002d5e:	68fb      	ldr	r3, [r7, #12]
 8002d60:	681b      	ldr	r3, [r3, #0]
 8002d62:	f043 0280 	orr.w	r2, r3, #128	@ 0x80
 8002d66:	68fb      	ldr	r3, [r7, #12]
 8002d68:	601a      	str	r2, [r3, #0]
		TIMx->EGR |= TIM_EGR_UG;
 8002d6a:	68fb      	ldr	r3, [r7, #12]
 8002d6c:	695b      	ldr	r3, [r3, #20]
 8002d6e:	f043 0201 	orr.w	r2, r3, #1
 8002d72:	68fb      	ldr	r3, [r7, #12]
 8002d74:	615a      	str	r2, [r3, #20]
		TIMx->CR1 |= TIM_CR1_CEN;
 8002d76:	68fb      	ldr	r3, [r7, #12]
 8002d78:	681b      	ldr	r3, [r3, #0]
 8002d7a:	f043 0201 	orr.w	r2, r3, #1
 8002d7e:	68fb      	ldr	r3, [r7, #12]
 8002d80:	601a      	str	r2, [r3, #0]
}
 8002d82:	bf00      	nop
 8002d84:	3710      	adds	r7, #16
 8002d86:	46bd      	mov	sp, r7
 8002d88:	bd80      	pop	{r7, pc}
 8002d8a:	bf00      	nop
 8002d8c:	40021000 	.word	0x40021000
 8002d90:	40000400 	.word	0x40000400

08002d94 <timRegisterHandler>:

// HANDLER

void timRegisterHandler(TIM_TypeDef *TIMx, TimHandler_t handler){
 8002d94:	b580      	push	{r7, lr}
 8002d96:	b084      	sub	sp, #16
 8002d98:	af00      	add	r7, sp, #0
 8002d9a:	6078      	str	r0, [r7, #4]
 8002d9c:	6039      	str	r1, [r7, #0]
	uint8_t index = getTimIndex(TIMx);
 8002d9e:	6878      	ldr	r0, [r7, #4]
 8002da0:	f7ff ff54 	bl	8002c4c <getTimIndex>
 8002da4:	4603      	mov	r3, r0
 8002da6:	73fb      	strb	r3, [r7, #15]
	if(index < 3){
 8002da8:	7bfb      	ldrb	r3, [r7, #15]
 8002daa:	2b02      	cmp	r3, #2
 8002dac:	d804      	bhi.n	8002db8 <timRegisterHandler+0x24>
		tim_handlers[index] = handler;
 8002dae:	7bfb      	ldrb	r3, [r7, #15]
 8002db0:	4903      	ldr	r1, [pc, #12]	@ (8002dc0 <timRegisterHandler+0x2c>)
 8002db2:	683a      	ldr	r2, [r7, #0]
 8002db4:	f841 2023 	str.w	r2, [r1, r3, lsl #2]
	}
}
 8002db8:	bf00      	nop
 8002dba:	3710      	adds	r7, #16
 8002dbc:	46bd      	mov	sp, r7
 8002dbe:	bd80      	pop	{r7, pc}
 8002dc0:	20000250 	.word	0x20000250

08002dc4 <TIM3_IRQHandler>:


void TIM3_IRQHandler(void){
 8002dc4:	b580      	push	{r7, lr}
 8002dc6:	af00      	add	r7, sp, #0
	if(TIM3->SR & TIM_SR_UIF){
 8002dc8:	4b0a      	ldr	r3, [pc, #40]	@ (8002df4 <TIM3_IRQHandler+0x30>)
 8002dca:	691b      	ldr	r3, [r3, #16]
 8002dcc:	f003 0301 	and.w	r3, r3, #1
 8002dd0:	2b00      	cmp	r3, #0
 8002dd2:	d005      	beq.n	8002de0 <TIM3_IRQHandler+0x1c>
		TIM3->SR &= ~TIM_SR_UIF;
 8002dd4:	4b07      	ldr	r3, [pc, #28]	@ (8002df4 <TIM3_IRQHandler+0x30>)
 8002dd6:	691b      	ldr	r3, [r3, #16]
 8002dd8:	4a06      	ldr	r2, [pc, #24]	@ (8002df4 <TIM3_IRQHandler+0x30>)
 8002dda:	f023 0301 	bic.w	r3, r3, #1
 8002dde:	6113      	str	r3, [r2, #16]
	}

	if(tim_handlers[2] != NULL){
 8002de0:	4b05      	ldr	r3, [pc, #20]	@ (8002df8 <TIM3_IRQHandler+0x34>)
 8002de2:	689b      	ldr	r3, [r3, #8]
 8002de4:	2b00      	cmp	r3, #0
 8002de6:	d002      	beq.n	8002dee <TIM3_IRQHandler+0x2a>
		tim_handlers[2]();
 8002de8:	4b03      	ldr	r3, [pc, #12]	@ (8002df8 <TIM3_IRQHandler+0x34>)
 8002dea:	689b      	ldr	r3, [r3, #8]
 8002dec:	4798      	blx	r3
	}
}
 8002dee:	bf00      	nop
 8002df0:	bd80      	pop	{r7, pc}
 8002df2:	bf00      	nop
 8002df4:	40000400 	.word	0x40000400
 8002df8:	20000250 	.word	0x20000250

08002dfc <__NVIC_EnableIRQ>:
{
 8002dfc:	b480      	push	{r7}
 8002dfe:	b083      	sub	sp, #12
 8002e00:	af00      	add	r7, sp, #0
 8002e02:	4603      	mov	r3, r0
 8002e04:	71fb      	strb	r3, [r7, #7]
  if ((int32_t)(IRQn) >= 0)
 8002e06:	f997 3007 	ldrsb.w	r3, [r7, #7]
 8002e0a:	2b00      	cmp	r3, #0
 8002e0c:	db0b      	blt.n	8002e26 <__NVIC_EnableIRQ+0x2a>
    NVIC->ISER[(((uint32_t)IRQn) >> 5UL)] = (uint32_t)(1UL << (((uint32_t)IRQn) & 0x1FUL));
 8002e0e:	79fb      	ldrb	r3, [r7, #7]
 8002e10:	f003 021f 	and.w	r2, r3, #31
 8002e14:	4906      	ldr	r1, [pc, #24]	@ (8002e30 <__NVIC_EnableIRQ+0x34>)
 8002e16:	f997 3007 	ldrsb.w	r3, [r7, #7]
 8002e1a:	095b      	lsrs	r3, r3, #5
 8002e1c:	2001      	movs	r0, #1
 8002e1e:	fa00 f202 	lsl.w	r2, r0, r2
 8002e22:	f841 2023 	str.w	r2, [r1, r3, lsl #2]
}
 8002e26:	bf00      	nop
 8002e28:	370c      	adds	r7, #12
 8002e2a:	46bd      	mov	sp, r7
 8002e2c:	bc80      	pop	{r7}
 8002e2e:	4770      	bx	lr
 8002e30:	e000e100 	.word	0xe000e100

08002e34 <usartInit>:

volatile uint16_t rx_heads[2] = { 0 }, tx_heads[2] = { 0 };
volatile uint16_t rx_tails[2] = { 0 }, tx_tails[2] = { 0 };
volatile char usartRXBuffers[2][USART_BUFFER_SIZE] = {{ 0 }}, usartTXBuffers[2][USART_BUFFER_SIZE] = {{ 0 }};

void usartInit(USART_TypeDef *USARTx, uint32_t  baud_rate){
 8002e34:	b580      	push	{r7, lr}
 8002e36:	b08c      	sub	sp, #48	@ 0x30
 8002e38:	af02      	add	r7, sp, #8
 8002e3a:	6078      	str	r0, [r7, #4]
 8002e3c:	6039      	str	r1, [r7, #0]
	if(USARTx == USART1){
 8002e3e:	687b      	ldr	r3, [r7, #4]
 8002e40:	4a34      	ldr	r2, [pc, #208]	@ (8002f14 <usartInit+0xe0>)
 8002e42:	4293      	cmp	r3, r2
 8002e44:	d129      	bne.n	8002e9a <usartInit+0x66>
		RCC->APB2ENR |= RCC_APB2ENR_USART1EN;
 8002e46:	4b34      	ldr	r3, [pc, #208]	@ (8002f18 <usartInit+0xe4>)
 8002e48:	699b      	ldr	r3, [r3, #24]
 8002e4a:	4a33      	ldr	r2, [pc, #204]	@ (8002f18 <usartInit+0xe4>)
 8002e4c:	f443 4380 	orr.w	r3, r3, #16384	@ 0x4000
 8002e50:	6193      	str	r3, [r2, #24]
		Pin_t tx = {GPIOA, 9}, rx = {GPIOA, 10};
 8002e52:	4a32      	ldr	r2, [pc, #200]	@ (8002f1c <usartInit+0xe8>)
 8002e54:	f107 0320 	add.w	r3, r7, #32
 8002e58:	e892 0003 	ldmia.w	r2, {r0, r1}
 8002e5c:	e883 0003 	stmia.w	r3, {r0, r1}
 8002e60:	4a2f      	ldr	r2, [pc, #188]	@ (8002f20 <usartInit+0xec>)
 8002e62:	f107 0318 	add.w	r3, r7, #24
 8002e66:	e892 0003 	ldmia.w	r2, {r0, r1}
 8002e6a:	e883 0003 	stmia.w	r3, {r0, r1}
		pinMode(tx, GPIO_MODE_OUTPUT_50MHz, GPIO_CNF_PUSH_PULL_ALT, 0);
 8002e6e:	2300      	movs	r3, #0
 8002e70:	9300      	str	r3, [sp, #0]
 8002e72:	2302      	movs	r3, #2
 8002e74:	2203      	movs	r2, #3
 8002e76:	f107 0120 	add.w	r1, r7, #32
 8002e7a:	c903      	ldmia	r1, {r0, r1}
 8002e7c:	f7ff f90c 	bl	8002098 <pinMode>
		pinMode(rx, GPIO_MODE_INPUT, GPIO_CNF_INPUT_PU_PD, 1);
 8002e80:	2301      	movs	r3, #1
 8002e82:	9300      	str	r3, [sp, #0]
 8002e84:	2302      	movs	r3, #2
 8002e86:	2200      	movs	r2, #0
 8002e88:	f107 0118 	add.w	r1, r7, #24
 8002e8c:	c903      	ldmia	r1, {r0, r1}
 8002e8e:	f7ff f903 	bl	8002098 <pinMode>
		NVIC_EnableIRQ(USART1_IRQn);
 8002e92:	2025      	movs	r0, #37	@ 0x25
 8002e94:	f7ff ffb2 	bl	8002dfc <__NVIC_EnableIRQ>
 8002e98:	e02c      	b.n	8002ef4 <usartInit+0xc0>
	}
	else if(USARTx == USART2){
 8002e9a:	687b      	ldr	r3, [r7, #4]
 8002e9c:	4a21      	ldr	r2, [pc, #132]	@ (8002f24 <usartInit+0xf0>)
 8002e9e:	4293      	cmp	r3, r2
 8002ea0:	d128      	bne.n	8002ef4 <usartInit+0xc0>
		RCC->APB1ENR |= RCC_APB1ENR_USART2EN;
 8002ea2:	4b1d      	ldr	r3, [pc, #116]	@ (8002f18 <usartInit+0xe4>)
 8002ea4:	69db      	ldr	r3, [r3, #28]
 8002ea6:	4a1c      	ldr	r2, [pc, #112]	@ (8002f18 <usartInit+0xe4>)
 8002ea8:	f443 3300 	orr.w	r3, r3, #131072	@ 0x20000
 8002eac:	61d3      	str	r3, [r2, #28]
		Pin_t tx = {GPIOA, 2}, rx = {GPIOA, 3};
 8002eae:	4a1e      	ldr	r2, [pc, #120]	@ (8002f28 <usartInit+0xf4>)
 8002eb0:	f107 0310 	add.w	r3, r7, #16
 8002eb4:	e892 0003 	ldmia.w	r2, {r0, r1}
 8002eb8:	e883 0003 	stmia.w	r3, {r0, r1}
 8002ebc:	4a1b      	ldr	r2, [pc, #108]	@ (8002f2c <usartInit+0xf8>)
 8002ebe:	f107 0308 	add.w	r3, r7, #8
 8002ec2:	e892 0003 	ldmia.w	r2, {r0, r1}
 8002ec6:	e883 0003 	stmia.w	r3, {r0, r1}
		pinMode(tx, GPIO_MODE_OUTPUT_50MHz, GPIO_CNF_PUSH_PULL_ALT, 0);
 8002eca:	2300      	movs	r3, #0
 8002ecc:	9300      	str	r3, [sp, #0]
 8002ece:	2302      	movs	r3, #2
 8002ed0:	2203      	movs	r2, #3
 8002ed2:	f107 0110 	add.w	r1, r7, #16
 8002ed6:	c903      	ldmia	r1, {r0, r1}
 8002ed8:	f7ff f8de 	bl	8002098 <pinMode>
		pinMode(rx, GPIO_MODE_INPUT, GPIO_CNF_FLOATING, 0);
 8002edc:	2300      	movs	r3, #0
 8002ede:	9300      	str	r3, [sp, #0]
 8002ee0:	2301      	movs	r3, #1
 8002ee2:	2200      	movs	r2, #0
 8002ee4:	f107 0108 	add.w	r1, r7, #8
 8002ee8:	c903      	ldmia	r1, {r0, r1}
 8002eea:	f7ff f8d5 	bl	8002098 <pinMode>
		NVIC_EnableIRQ(USART2_IRQn);
 8002eee:	2026      	movs	r0, #38	@ 0x26
 8002ef0:	f7ff ff84 	bl	8002dfc <__NVIC_EnableIRQ>
	}

	USARTx->BRR = usartDiv(8000000, baud_rate);
 8002ef4:	6839      	ldr	r1, [r7, #0]
 8002ef6:	480e      	ldr	r0, [pc, #56]	@ (8002f30 <usartInit+0xfc>)
 8002ef8:	f000 f878 	bl	8002fec <usartDiv>
 8002efc:	4602      	mov	r2, r0
 8002efe:	687b      	ldr	r3, [r7, #4]
 8002f00:	609a      	str	r2, [r3, #8]
	USARTx->CR1 = USART_CR1_UE | USART_CR1_TE | USART_CR1_RE | USART_CR1_RXNEIE;
 8002f02:	687b      	ldr	r3, [r7, #4]
 8002f04:	f242 022c 	movw	r2, #8236	@ 0x202c
 8002f08:	60da      	str	r2, [r3, #12]

}
 8002f0a:	bf00      	nop
 8002f0c:	3728      	adds	r7, #40	@ 0x28
 8002f0e:	46bd      	mov	sp, r7
 8002f10:	bd80      	pop	{r7, pc}
 8002f12:	bf00      	nop
 8002f14:	40013800 	.word	0x40013800
 8002f18:	40021000 	.word	0x40021000
 8002f1c:	0800353c 	.word	0x0800353c
 8002f20:	08003544 	.word	0x08003544
 8002f24:	40004400 	.word	0x40004400
 8002f28:	0800354c 	.word	0x0800354c
 8002f2c:	08003554 	.word	0x08003554
 8002f30:	007a1200 	.word	0x007a1200

08002f34 <usartWriteLine>:
	tx_heads[port_id] = next_head;
	USARTx->CR1 |= USART_CR1_TXEIE;
}


void usartWriteLine(USART_TypeDef *USARTx, const char* str, uint16_t len){
 8002f34:	b580      	push	{r7, lr}
 8002f36:	b088      	sub	sp, #32
 8002f38:	af00      	add	r7, sp, #0
 8002f3a:	60f8      	str	r0, [r7, #12]
 8002f3c:	60b9      	str	r1, [r7, #8]
 8002f3e:	4613      	mov	r3, r2
 8002f40:	80fb      	strh	r3, [r7, #6]
	uint8_t port_id = usartIndex(USARTx);
 8002f42:	68f8      	ldr	r0, [r7, #12]
 8002f44:	f000 f860 	bl	8003008 <usartIndex>
 8002f48:	4603      	mov	r3, r0
 8002f4a:	777b      	strb	r3, [r7, #29]
	volatile char *usartTXBuffer = usartTXBuffers[port_id];
 8002f4c:	7f7a      	ldrb	r2, [r7, #29]
 8002f4e:	4613      	mov	r3, r2
 8002f50:	021b      	lsls	r3, r3, #8
 8002f52:	4413      	add	r3, r2
 8002f54:	4a21      	ldr	r2, [pc, #132]	@ (8002fdc <usartWriteLine+0xa8>)
 8002f56:	4413      	add	r3, r2
 8002f58:	61bb      	str	r3, [r7, #24]
	for(uint16_t i = 0; i < len; i++){
 8002f5a:	2300      	movs	r3, #0
 8002f5c:	83fb      	strh	r3, [r7, #30]
 8002f5e:	e02e      	b.n	8002fbe <usartWriteLine+0x8a>
		uint16_t next_head = (tx_heads[port_id] + 1) % USART_BUFFER_SIZE;
 8002f60:	7f7b      	ldrb	r3, [r7, #29]
 8002f62:	4a1f      	ldr	r2, [pc, #124]	@ (8002fe0 <usartWriteLine+0xac>)
 8002f64:	f832 3013 	ldrh.w	r3, [r2, r3, lsl #1]
 8002f68:	b29b      	uxth	r3, r3
 8002f6a:	1c5a      	adds	r2, r3, #1
 8002f6c:	4b1d      	ldr	r3, [pc, #116]	@ (8002fe4 <usartWriteLine+0xb0>)
 8002f6e:	fb83 1302 	smull	r1, r3, r3, r2
 8002f72:	11d9      	asrs	r1, r3, #7
 8002f74:	17d3      	asrs	r3, r2, #31
 8002f76:	1ac9      	subs	r1, r1, r3
 8002f78:	460b      	mov	r3, r1
 8002f7a:	021b      	lsls	r3, r3, #8
 8002f7c:	440b      	add	r3, r1
 8002f7e:	1ad1      	subs	r1, r2, r3
 8002f80:	460b      	mov	r3, r1
 8002f82:	82fb      	strh	r3, [r7, #22]
		if(next_head == tx_tails[port_id]){
 8002f84:	7f7b      	ldrb	r3, [r7, #29]
 8002f86:	4a18      	ldr	r2, [pc, #96]	@ (8002fe8 <usartWriteLine+0xb4>)
 8002f88:	f832 3013 	ldrh.w	r3, [r2, r3, lsl #1]
 8002f8c:	b29b      	uxth	r3, r3
 8002f8e:	8afa      	ldrh	r2, [r7, #22]
 8002f90:	429a      	cmp	r2, r3
 8002f92:	d01f      	beq.n	8002fd4 <usartWriteLine+0xa0>
			return;
		}
		usartTXBuffer[tx_heads[port_id]] = *str++;
 8002f94:	68bb      	ldr	r3, [r7, #8]
 8002f96:	1c5a      	adds	r2, r3, #1
 8002f98:	60ba      	str	r2, [r7, #8]
 8002f9a:	7f7a      	ldrb	r2, [r7, #29]
 8002f9c:	4910      	ldr	r1, [pc, #64]	@ (8002fe0 <usartWriteLine+0xac>)
 8002f9e:	f831 2012 	ldrh.w	r2, [r1, r2, lsl #1]
 8002fa2:	b292      	uxth	r2, r2
 8002fa4:	4611      	mov	r1, r2
 8002fa6:	69ba      	ldr	r2, [r7, #24]
 8002fa8:	440a      	add	r2, r1
 8002faa:	781b      	ldrb	r3, [r3, #0]
 8002fac:	7013      	strb	r3, [r2, #0]
		tx_heads[port_id] = next_head;
 8002fae:	7f7b      	ldrb	r3, [r7, #29]
 8002fb0:	490b      	ldr	r1, [pc, #44]	@ (8002fe0 <usartWriteLine+0xac>)
 8002fb2:	8afa      	ldrh	r2, [r7, #22]
 8002fb4:	f821 2013 	strh.w	r2, [r1, r3, lsl #1]
	for(uint16_t i = 0; i < len; i++){
 8002fb8:	8bfb      	ldrh	r3, [r7, #30]
 8002fba:	3301      	adds	r3, #1
 8002fbc:	83fb      	strh	r3, [r7, #30]
 8002fbe:	8bfa      	ldrh	r2, [r7, #30]
 8002fc0:	88fb      	ldrh	r3, [r7, #6]
 8002fc2:	429a      	cmp	r2, r3
 8002fc4:	d3cc      	bcc.n	8002f60 <usartWriteLine+0x2c>
	}
	USARTx->CR1 |= USART_CR1_TXEIE;
 8002fc6:	68fb      	ldr	r3, [r7, #12]
 8002fc8:	68db      	ldr	r3, [r3, #12]
 8002fca:	f043 0280 	orr.w	r2, r3, #128	@ 0x80
 8002fce:	68fb      	ldr	r3, [r7, #12]
 8002fd0:	60da      	str	r2, [r3, #12]
 8002fd2:	e000      	b.n	8002fd6 <usartWriteLine+0xa2>
			return;
 8002fd4:	bf00      	nop
}
 8002fd6:	3720      	adds	r7, #32
 8002fd8:	46bd      	mov	sp, r7
 8002fda:	bd80      	pop	{r7, pc}
 8002fdc:	20000470 	.word	0x20000470
 8002fe0:	20000260 	.word	0x20000260
 8002fe4:	7f807f81 	.word	0x7f807f81
 8002fe8:	20000268 	.word	0x20000268

08002fec <usartDiv>:
		USARTx->DR = temp;
	}
}


uint32_t usartDiv(uint32_t F_CPU, uint32_t baud_rate){
 8002fec:	b480      	push	{r7}
 8002fee:	b083      	sub	sp, #12
 8002ff0:	af00      	add	r7, sp, #0
 8002ff2:	6078      	str	r0, [r7, #4]
 8002ff4:	6039      	str	r1, [r7, #0]
    return F_CPU/baud_rate;
 8002ff6:	687a      	ldr	r2, [r7, #4]
 8002ff8:	683b      	ldr	r3, [r7, #0]
 8002ffa:	fbb2 f3f3 	udiv	r3, r2, r3
}
 8002ffe:	4618      	mov	r0, r3
 8003000:	370c      	adds	r7, #12
 8003002:	46bd      	mov	sp, r7
 8003004:	bc80      	pop	{r7}
 8003006:	4770      	bx	lr

08003008 <usartIndex>:

uint8_t usartIndex(USART_TypeDef *USARTx){
 8003008:	b480      	push	{r7}
 800300a:	b083      	sub	sp, #12
 800300c:	af00      	add	r7, sp, #0
 800300e:	6078      	str	r0, [r7, #4]
	if(USARTx == USART2){
 8003010:	687b      	ldr	r3, [r7, #4]
 8003012:	4a05      	ldr	r2, [pc, #20]	@ (8003028 <usartIndex+0x20>)
 8003014:	4293      	cmp	r3, r2
 8003016:	d101      	bne.n	800301c <usartIndex+0x14>
		return 1;
 8003018:	2301      	movs	r3, #1
 800301a:	e000      	b.n	800301e <usartIndex+0x16>
	}
	return 0;
 800301c:	2300      	movs	r3, #0
}
 800301e:	4618      	mov	r0, r3
 8003020:	370c      	adds	r7, #12
 8003022:	46bd      	mov	sp, r7
 8003024:	bc80      	pop	{r7}
 8003026:	4770      	bx	lr
 8003028:	40004400 	.word	0x40004400

0800302c <USART1_IRQHandler>:


void USART1_IRQHandler(void){
 800302c:	b580      	push	{r7, lr}
 800302e:	af00      	add	r7, sp, #0
	USART_IRQHandler_Generic(USART1);
 8003030:	4802      	ldr	r0, [pc, #8]	@ (800303c <USART1_IRQHandler+0x10>)
 8003032:	f000 f805 	bl	8003040 <USART_IRQHandler_Generic>
}
 8003036:	bf00      	nop
 8003038:	bd80      	pop	{r7, pc}
 800303a:	bf00      	nop
 800303c:	40013800 	.word	0x40013800

08003040 <USART_IRQHandler_Generic>:
__attribute__((weak)) void USART2_IRQHandler(void){
	USART_IRQHandler_Generic(USART2);
}


void USART_IRQHandler_Generic(USART_TypeDef *USARTx){
 8003040:	b580      	push	{r7, lr}
 8003042:	b086      	sub	sp, #24
 8003044:	af00      	add	r7, sp, #0
 8003046:	6078      	str	r0, [r7, #4]
	// ==== RX ====
	uint8_t port_id = usartIndex(USARTx);
 8003048:	6878      	ldr	r0, [r7, #4]
 800304a:	f7ff ffdd 	bl	8003008 <usartIndex>
 800304e:	4603      	mov	r3, r0
 8003050:	75fb      	strb	r3, [r7, #23]
	if(USARTx->SR & USART_SR_RXNE){
 8003052:	687b      	ldr	r3, [r7, #4]
 8003054:	681b      	ldr	r3, [r3, #0]
 8003056:	f003 0320 	and.w	r3, r3, #32
 800305a:	2b00      	cmp	r3, #0
 800305c:	d032      	beq.n	80030c4 <USART_IRQHandler_Generic+0x84>
		char byte = (char)(USARTx->DR & 0xFF);
 800305e:	687b      	ldr	r3, [r7, #4]
 8003060:	685b      	ldr	r3, [r3, #4]
 8003062:	75bb      	strb	r3, [r7, #22]
		uint16_t next_head = (rx_heads[port_id] + 1) % USART_BUFFER_SIZE;
 8003064:	7dfb      	ldrb	r3, [r7, #23]
 8003066:	4a48      	ldr	r2, [pc, #288]	@ (8003188 <USART_IRQHandler_Generic+0x148>)
 8003068:	f832 3013 	ldrh.w	r3, [r2, r3, lsl #1]
 800306c:	b29b      	uxth	r3, r3
 800306e:	1c5a      	adds	r2, r3, #1
 8003070:	4b46      	ldr	r3, [pc, #280]	@ (800318c <USART_IRQHandler_Generic+0x14c>)
 8003072:	fb83 1302 	smull	r1, r3, r3, r2
 8003076:	11d9      	asrs	r1, r3, #7
 8003078:	17d3      	asrs	r3, r2, #31
 800307a:	1ac9      	subs	r1, r1, r3
 800307c:	460b      	mov	r3, r1
 800307e:	021b      	lsls	r3, r3, #8
 8003080:	440b      	add	r3, r1
 8003082:	1ad1      	subs	r1, r2, r3
 8003084:	460b      	mov	r3, r1
 8003086:	82bb      	strh	r3, [r7, #20]
		if(next_head != rx_tails[port_id]){
 8003088:	7dfb      	ldrb	r3, [r7, #23]
 800308a:	4a41      	ldr	r2, [pc, #260]	@ (8003190 <USART_IRQHandler_Generic+0x150>)
 800308c:	f832 3013 	ldrh.w	r3, [r2, r3, lsl #1]
 8003090:	b29b      	uxth	r3, r3
 8003092:	8aba      	ldrh	r2, [r7, #20]
 8003094:	429a      	cmp	r2, r3
 8003096:	d015      	beq.n	80030c4 <USART_IRQHandler_Generic+0x84>
			volatile char *usartRXBuffer = usartRXBuffers[port_id];
 8003098:	7dfa      	ldrb	r2, [r7, #23]
 800309a:	4613      	mov	r3, r2
 800309c:	021b      	lsls	r3, r3, #8
 800309e:	4413      	add	r3, r2
 80030a0:	4a3c      	ldr	r2, [pc, #240]	@ (8003194 <USART_IRQHandler_Generic+0x154>)
 80030a2:	4413      	add	r3, r2
 80030a4:	613b      	str	r3, [r7, #16]
			usartRXBuffer[rx_heads[port_id]] = byte;
 80030a6:	7dfb      	ldrb	r3, [r7, #23]
 80030a8:	4a37      	ldr	r2, [pc, #220]	@ (8003188 <USART_IRQHandler_Generic+0x148>)
 80030aa:	f832 3013 	ldrh.w	r3, [r2, r3, lsl #1]
 80030ae:	b29b      	uxth	r3, r3
 80030b0:	461a      	mov	r2, r3
 80030b2:	693b      	ldr	r3, [r7, #16]
 80030b4:	4413      	add	r3, r2
 80030b6:	7dba      	ldrb	r2, [r7, #22]
 80030b8:	701a      	strb	r2, [r3, #0]
			rx_heads[port_id] = next_head;
 80030ba:	7dfb      	ldrb	r3, [r7, #23]
 80030bc:	4932      	ldr	r1, [pc, #200]	@ (8003188 <USART_IRQHandler_Generic+0x148>)
 80030be:	8aba      	ldrh	r2, [r7, #20]
 80030c0:	f821 2013 	strh.w	r2, [r1, r3, lsl #1]
		}
	}
	// ==== TX ====
	if((USARTx->SR & USART_SR_TXE) && (USARTx->CR1 & USART_CR1_TXEIE)){
 80030c4:	687b      	ldr	r3, [r7, #4]
 80030c6:	681b      	ldr	r3, [r3, #0]
 80030c8:	f003 0380 	and.w	r3, r3, #128	@ 0x80
 80030cc:	2b00      	cmp	r3, #0
 80030ce:	d04c      	beq.n	800316a <USART_IRQHandler_Generic+0x12a>
 80030d0:	687b      	ldr	r3, [r7, #4]
 80030d2:	68db      	ldr	r3, [r3, #12]
 80030d4:	f003 0380 	and.w	r3, r3, #128	@ 0x80
 80030d8:	2b00      	cmp	r3, #0
 80030da:	d046      	beq.n	800316a <USART_IRQHandler_Generic+0x12a>
		volatile char *usartTXBuffer = usartTXBuffers[port_id];
 80030dc:	7dfa      	ldrb	r2, [r7, #23]
 80030de:	4613      	mov	r3, r2
 80030e0:	021b      	lsls	r3, r3, #8
 80030e2:	4413      	add	r3, r2
 80030e4:	4a2c      	ldr	r2, [pc, #176]	@ (8003198 <USART_IRQHandler_Generic+0x158>)
 80030e6:	4413      	add	r3, r2
 80030e8:	60fb      	str	r3, [r7, #12]
		if(tx_tails[port_id] != tx_heads[port_id]){
 80030ea:	7dfb      	ldrb	r3, [r7, #23]
 80030ec:	4a2b      	ldr	r2, [pc, #172]	@ (800319c <USART_IRQHandler_Generic+0x15c>)
 80030ee:	f832 3013 	ldrh.w	r3, [r2, r3, lsl #1]
 80030f2:	b29a      	uxth	r2, r3
 80030f4:	7dfb      	ldrb	r3, [r7, #23]
 80030f6:	492a      	ldr	r1, [pc, #168]	@ (80031a0 <USART_IRQHandler_Generic+0x160>)
 80030f8:	f831 3013 	ldrh.w	r3, [r1, r3, lsl #1]
 80030fc:	b29b      	uxth	r3, r3
 80030fe:	429a      	cmp	r2, r3
 8003100:	d021      	beq.n	8003146 <USART_IRQHandler_Generic+0x106>
			USARTx->DR = usartTXBuffer[tx_tails[port_id]];
 8003102:	7dfb      	ldrb	r3, [r7, #23]
 8003104:	4a25      	ldr	r2, [pc, #148]	@ (800319c <USART_IRQHandler_Generic+0x15c>)
 8003106:	f832 3013 	ldrh.w	r3, [r2, r3, lsl #1]
 800310a:	b29b      	uxth	r3, r3
 800310c:	461a      	mov	r2, r3
 800310e:	68fb      	ldr	r3, [r7, #12]
 8003110:	4413      	add	r3, r2
 8003112:	781b      	ldrb	r3, [r3, #0]
 8003114:	b2db      	uxtb	r3, r3
 8003116:	461a      	mov	r2, r3
 8003118:	687b      	ldr	r3, [r7, #4]
 800311a:	605a      	str	r2, [r3, #4]
			tx_tails[port_id] = (tx_tails[port_id] + 1) % USART_BUFFER_SIZE;
 800311c:	7dfb      	ldrb	r3, [r7, #23]
 800311e:	4a1f      	ldr	r2, [pc, #124]	@ (800319c <USART_IRQHandler_Generic+0x15c>)
 8003120:	f832 3013 	ldrh.w	r3, [r2, r3, lsl #1]
 8003124:	b29b      	uxth	r3, r3
 8003126:	1c5a      	adds	r2, r3, #1
 8003128:	4b18      	ldr	r3, [pc, #96]	@ (800318c <USART_IRQHandler_Generic+0x14c>)
 800312a:	fb83 1302 	smull	r1, r3, r3, r2
 800312e:	11d9      	asrs	r1, r3, #7
 8003130:	17d3      	asrs	r3, r2, #31
 8003132:	1ac9      	subs	r1, r1, r3
 8003134:	460b      	mov	r3, r1
 8003136:	021b      	lsls	r3, r3, #8
 8003138:	440b      	add	r3, r1
 800313a:	1ad1      	subs	r1, r2, r3
 800313c:	7dfb      	ldrb	r3, [r7, #23]
 800313e:	b289      	uxth	r1, r1
 8003140:	4a16      	ldr	r2, [pc, #88]	@ (800319c <USART_IRQHandler_Generic+0x15c>)
 8003142:	f822 1013 	strh.w	r1, [r2, r3, lsl #1]
		}
		if(tx_tails[port_id] == tx_heads[port_id]){
 8003146:	7dfb      	ldrb	r3, [r7, #23]
 8003148:	4a14      	ldr	r2, [pc, #80]	@ (800319c <USART_IRQHandler_Generic+0x15c>)
 800314a:	f832 3013 	ldrh.w	r3, [r2, r3, lsl #1]
 800314e:	b29a      	uxth	r2, r3
 8003150:	7dfb      	ldrb	r3, [r7, #23]
 8003152:	4913      	ldr	r1, [pc, #76]	@ (80031a0 <USART_IRQHandler_Generic+0x160>)
 8003154:	f831 3013 	ldrh.w	r3, [r1, r3, lsl #1]
 8003158:	b29b      	uxth	r3, r3
 800315a:	429a      	cmp	r2, r3
 800315c:	d105      	bne.n	800316a <USART_IRQHandler_Generic+0x12a>
			USARTx->CR1 &= ~USART_CR1_TXEIE;
 800315e:	687b      	ldr	r3, [r7, #4]
 8003160:	68db      	ldr	r3, [r3, #12]
 8003162:	f023 0280 	bic.w	r2, r3, #128	@ 0x80
 8003166:	687b      	ldr	r3, [r7, #4]
 8003168:	60da      	str	r2, [r3, #12]
		}
	}

	if(USARTx->SR & (USART_SR_ORE | USART_SR_NE | USART_SR_FE)){
 800316a:	687b      	ldr	r3, [r7, #4]
 800316c:	681b      	ldr	r3, [r3, #0]
 800316e:	f003 030e 	and.w	r3, r3, #14
 8003172:	2b00      	cmp	r3, #0
 8003174:	d003      	beq.n	800317e <USART_IRQHandler_Generic+0x13e>
		volatile uint32_t dummy = USARTx->DR;
 8003176:	687b      	ldr	r3, [r7, #4]
 8003178:	685b      	ldr	r3, [r3, #4]
 800317a:	60bb      	str	r3, [r7, #8]
		(void)dummy;
 800317c:	68bb      	ldr	r3, [r7, #8]
	}
}
 800317e:	bf00      	nop
 8003180:	3718      	adds	r7, #24
 8003182:	46bd      	mov	sp, r7
 8003184:	bd80      	pop	{r7, pc}
 8003186:	bf00      	nop
 8003188:	2000025c 	.word	0x2000025c
 800318c:	7f807f81 	.word	0x7f807f81
 8003190:	20000264 	.word	0x20000264
 8003194:	2000026c 	.word	0x2000026c
 8003198:	20000470 	.word	0x20000470
 800319c:	20000268 	.word	0x20000268
 80031a0:	20000260 	.word	0x20000260

080031a4 <__libc_init_array>:
 80031a4:	b570      	push	{r4, r5, r6, lr}
 80031a6:	2600      	movs	r6, #0
 80031a8:	4d0c      	ldr	r5, [pc, #48]	@ (80031dc <__libc_init_array+0x38>)
 80031aa:	4c0d      	ldr	r4, [pc, #52]	@ (80031e0 <__libc_init_array+0x3c>)
 80031ac:	1b64      	subs	r4, r4, r5
 80031ae:	10a4      	asrs	r4, r4, #2
 80031b0:	42a6      	cmp	r6, r4
 80031b2:	d109      	bne.n	80031c8 <__libc_init_array+0x24>
 80031b4:	f000 f9b4 	bl	8003520 <_init>
 80031b8:	2600      	movs	r6, #0
 80031ba:	4d0a      	ldr	r5, [pc, #40]	@ (80031e4 <__libc_init_array+0x40>)
 80031bc:	4c0a      	ldr	r4, [pc, #40]	@ (80031e8 <__libc_init_array+0x44>)
 80031be:	1b64      	subs	r4, r4, r5
 80031c0:	10a4      	asrs	r4, r4, #2
 80031c2:	42a6      	cmp	r6, r4
 80031c4:	d105      	bne.n	80031d2 <__libc_init_array+0x2e>
 80031c6:	bd70      	pop	{r4, r5, r6, pc}
 80031c8:	f855 3b04 	ldr.w	r3, [r5], #4
 80031cc:	4798      	blx	r3
 80031ce:	3601      	adds	r6, #1
 80031d0:	e7ee      	b.n	80031b0 <__libc_init_array+0xc>
 80031d2:	f855 3b04 	ldr.w	r3, [r5], #4
 80031d6:	4798      	blx	r3
 80031d8:	3601      	adds	r6, #1
 80031da:	e7f2      	b.n	80031c2 <__libc_init_array+0x1e>
 80031dc:	080035c4 	.word	0x080035c4
 80031e0:	080035c4 	.word	0x080035c4
 80031e4:	080035c4 	.word	0x080035c4
 80031e8:	080035c8 	.word	0x080035c8

080031ec <atan2f>:
 80031ec:	f000 b800 	b.w	80031f0 <__ieee754_atan2f>

080031f0 <__ieee754_atan2f>:
 80031f0:	b5f8      	push	{r3, r4, r5, r6, r7, lr}
 80031f2:	f021 4600 	bic.w	r6, r1, #2147483648	@ 0x80000000
 80031f6:	f1b6 4fff 	cmp.w	r6, #2139095040	@ 0x7f800000
 80031fa:	4603      	mov	r3, r0
 80031fc:	d805      	bhi.n	800320a <__ieee754_atan2f+0x1a>
 80031fe:	f020 4200 	bic.w	r2, r0, #2147483648	@ 0x80000000
 8003202:	f1b2 4fff 	cmp.w	r2, #2139095040	@ 0x7f800000
 8003206:	4607      	mov	r7, r0
 8003208:	d904      	bls.n	8003214 <__ieee754_atan2f+0x24>
 800320a:	4618      	mov	r0, r3
 800320c:	f7fd faec 	bl	80007e8 <__addsf3>
 8003210:	4603      	mov	r3, r0
 8003212:	e010      	b.n	8003236 <__ieee754_atan2f+0x46>
 8003214:	f1b1 5f7e 	cmp.w	r1, #1065353216	@ 0x3f800000
 8003218:	d103      	bne.n	8003222 <__ieee754_atan2f+0x32>
 800321a:	e8bd 40f8 	ldmia.w	sp!, {r3, r4, r5, r6, r7, lr}
 800321e:	f000 b86f 	b.w	8003300 <atanf>
 8003222:	178c      	asrs	r4, r1, #30
 8003224:	f004 0402 	and.w	r4, r4, #2
 8003228:	ea44 74d0 	orr.w	r4, r4, r0, lsr #31
 800322c:	b92a      	cbnz	r2, 800323a <__ieee754_atan2f+0x4a>
 800322e:	2c02      	cmp	r4, #2
 8003230:	d04b      	beq.n	80032ca <__ieee754_atan2f+0xda>
 8003232:	2c03      	cmp	r4, #3
 8003234:	d04b      	beq.n	80032ce <__ieee754_atan2f+0xde>
 8003236:	4618      	mov	r0, r3
 8003238:	bdf8      	pop	{r3, r4, r5, r6, r7, pc}
 800323a:	b91e      	cbnz	r6, 8003244 <__ieee754_atan2f+0x54>
 800323c:	2f00      	cmp	r7, #0
 800323e:	db4c      	blt.n	80032da <__ieee754_atan2f+0xea>
 8003240:	4b27      	ldr	r3, [pc, #156]	@ (80032e0 <__ieee754_atan2f+0xf0>)
 8003242:	e7f8      	b.n	8003236 <__ieee754_atan2f+0x46>
 8003244:	f1b6 4fff 	cmp.w	r6, #2139095040	@ 0x7f800000
 8003248:	d10e      	bne.n	8003268 <__ieee754_atan2f+0x78>
 800324a:	f1b2 4fff 	cmp.w	r2, #2139095040	@ 0x7f800000
 800324e:	f104 34ff 	add.w	r4, r4, #4294967295
 8003252:	d105      	bne.n	8003260 <__ieee754_atan2f+0x70>
 8003254:	2c02      	cmp	r4, #2
 8003256:	d83c      	bhi.n	80032d2 <__ieee754_atan2f+0xe2>
 8003258:	4b22      	ldr	r3, [pc, #136]	@ (80032e4 <__ieee754_atan2f+0xf4>)
 800325a:	f853 3024 	ldr.w	r3, [r3, r4, lsl #2]
 800325e:	e7ea      	b.n	8003236 <__ieee754_atan2f+0x46>
 8003260:	2c02      	cmp	r4, #2
 8003262:	d838      	bhi.n	80032d6 <__ieee754_atan2f+0xe6>
 8003264:	4b20      	ldr	r3, [pc, #128]	@ (80032e8 <__ieee754_atan2f+0xf8>)
 8003266:	e7f8      	b.n	800325a <__ieee754_atan2f+0x6a>
 8003268:	f1b2 4fff 	cmp.w	r2, #2139095040	@ 0x7f800000
 800326c:	d0e6      	beq.n	800323c <__ieee754_atan2f+0x4c>
 800326e:	1b92      	subs	r2, r2, r6
 8003270:	f1b2 5ff4 	cmp.w	r2, #511705088	@ 0x1e800000
 8003274:	ea4f 50e2 	mov.w	r0, r2, asr #23
 8003278:	da17      	bge.n	80032aa <__ieee754_atan2f+0xba>
 800327a:	2900      	cmp	r1, #0
 800327c:	da01      	bge.n	8003282 <__ieee754_atan2f+0x92>
 800327e:	303c      	adds	r0, #60	@ 0x3c
 8003280:	db15      	blt.n	80032ae <__ieee754_atan2f+0xbe>
 8003282:	4618      	mov	r0, r3
 8003284:	f7fd fc6c 	bl	8000b60 <__aeabi_fdiv>
 8003288:	f000 f946 	bl	8003518 <fabsf>
 800328c:	f000 f838 	bl	8003300 <atanf>
 8003290:	4603      	mov	r3, r0
 8003292:	2c01      	cmp	r4, #1
 8003294:	d00d      	beq.n	80032b2 <__ieee754_atan2f+0xc2>
 8003296:	2c02      	cmp	r4, #2
 8003298:	d00e      	beq.n	80032b8 <__ieee754_atan2f+0xc8>
 800329a:	2c00      	cmp	r4, #0
 800329c:	d0cb      	beq.n	8003236 <__ieee754_atan2f+0x46>
 800329e:	4913      	ldr	r1, [pc, #76]	@ (80032ec <__ieee754_atan2f+0xfc>)
 80032a0:	4618      	mov	r0, r3
 80032a2:	f7fd faa1 	bl	80007e8 <__addsf3>
 80032a6:	4912      	ldr	r1, [pc, #72]	@ (80032f0 <__ieee754_atan2f+0x100>)
 80032a8:	e00c      	b.n	80032c4 <__ieee754_atan2f+0xd4>
 80032aa:	4b0d      	ldr	r3, [pc, #52]	@ (80032e0 <__ieee754_atan2f+0xf0>)
 80032ac:	e7f1      	b.n	8003292 <__ieee754_atan2f+0xa2>
 80032ae:	2300      	movs	r3, #0
 80032b0:	e7ef      	b.n	8003292 <__ieee754_atan2f+0xa2>
 80032b2:	f103 4300 	add.w	r3, r3, #2147483648	@ 0x80000000
 80032b6:	e7be      	b.n	8003236 <__ieee754_atan2f+0x46>
 80032b8:	490c      	ldr	r1, [pc, #48]	@ (80032ec <__ieee754_atan2f+0xfc>)
 80032ba:	4618      	mov	r0, r3
 80032bc:	f7fd fa94 	bl	80007e8 <__addsf3>
 80032c0:	4601      	mov	r1, r0
 80032c2:	480b      	ldr	r0, [pc, #44]	@ (80032f0 <__ieee754_atan2f+0x100>)
 80032c4:	f7fd fa8e 	bl	80007e4 <__aeabi_fsub>
 80032c8:	e7a2      	b.n	8003210 <__ieee754_atan2f+0x20>
 80032ca:	4b09      	ldr	r3, [pc, #36]	@ (80032f0 <__ieee754_atan2f+0x100>)
 80032cc:	e7b3      	b.n	8003236 <__ieee754_atan2f+0x46>
 80032ce:	4b09      	ldr	r3, [pc, #36]	@ (80032f4 <__ieee754_atan2f+0x104>)
 80032d0:	e7b1      	b.n	8003236 <__ieee754_atan2f+0x46>
 80032d2:	4b09      	ldr	r3, [pc, #36]	@ (80032f8 <__ieee754_atan2f+0x108>)
 80032d4:	e7af      	b.n	8003236 <__ieee754_atan2f+0x46>
 80032d6:	2300      	movs	r3, #0
 80032d8:	e7ad      	b.n	8003236 <__ieee754_atan2f+0x46>
 80032da:	4b08      	ldr	r3, [pc, #32]	@ (80032fc <__ieee754_atan2f+0x10c>)
 80032dc:	e7ab      	b.n	8003236 <__ieee754_atan2f+0x46>
 80032de:	bf00      	nop
 80032e0:	3fc90fdb 	.word	0x3fc90fdb
 80032e4:	08003598 	.word	0x08003598
 80032e8:	0800358c 	.word	0x0800358c
 80032ec:	33bbbd2e 	.word	0x33bbbd2e
 80032f0:	40490fdb 	.word	0x40490fdb
 80032f4:	c0490fdb 	.word	0xc0490fdb
 80032f8:	3f490fdb 	.word	0x3f490fdb
 80032fc:	bfc90fdb 	.word	0xbfc90fdb

08003300 <atanf>:
 8003300:	e92d 41f0 	stmdb	sp!, {r4, r5, r6, r7, r8, lr}
 8003304:	f020 4500 	bic.w	r5, r0, #2147483648	@ 0x80000000
 8003308:	f1b5 4fa1 	cmp.w	r5, #1350565888	@ 0x50800000
 800330c:	4604      	mov	r4, r0
 800330e:	4680      	mov	r8, r0
 8003310:	d30e      	bcc.n	8003330 <atanf+0x30>
 8003312:	f1b5 4fff 	cmp.w	r5, #2139095040	@ 0x7f800000
 8003316:	d904      	bls.n	8003322 <atanf+0x22>
 8003318:	4601      	mov	r1, r0
 800331a:	f7fd fa65 	bl	80007e8 <__addsf3>
 800331e:	4604      	mov	r4, r0
 8003320:	e003      	b.n	800332a <atanf+0x2a>
 8003322:	2800      	cmp	r0, #0
 8003324:	f340 80ce 	ble.w	80034c4 <atanf+0x1c4>
 8003328:	4c67      	ldr	r4, [pc, #412]	@ (80034c8 <atanf+0x1c8>)
 800332a:	4620      	mov	r0, r4
 800332c:	e8bd 81f0 	ldmia.w	sp!, {r4, r5, r6, r7, r8, pc}
 8003330:	4b66      	ldr	r3, [pc, #408]	@ (80034cc <atanf+0x1cc>)
 8003332:	429d      	cmp	r5, r3
 8003334:	d80e      	bhi.n	8003354 <atanf+0x54>
 8003336:	f1b5 5f44 	cmp.w	r5, #822083584	@ 0x31000000
 800333a:	d208      	bcs.n	800334e <atanf+0x4e>
 800333c:	4964      	ldr	r1, [pc, #400]	@ (80034d0 <atanf+0x1d0>)
 800333e:	f7fd fa53 	bl	80007e8 <__addsf3>
 8003342:	f04f 517e 	mov.w	r1, #1065353216	@ 0x3f800000
 8003346:	f7fd fd13 	bl	8000d70 <__aeabi_fcmpgt>
 800334a:	2800      	cmp	r0, #0
 800334c:	d1ed      	bne.n	800332a <atanf+0x2a>
 800334e:	f04f 36ff 	mov.w	r6, #4294967295
 8003352:	e01c      	b.n	800338e <atanf+0x8e>
 8003354:	f000 f8e0 	bl	8003518 <fabsf>
 8003358:	4b5e      	ldr	r3, [pc, #376]	@ (80034d4 <atanf+0x1d4>)
 800335a:	4604      	mov	r4, r0
 800335c:	429d      	cmp	r5, r3
 800335e:	d87c      	bhi.n	800345a <atanf+0x15a>
 8003360:	f5a3 03d0 	sub.w	r3, r3, #6815744	@ 0x680000
 8003364:	429d      	cmp	r5, r3
 8003366:	d867      	bhi.n	8003438 <atanf+0x138>
 8003368:	4601      	mov	r1, r0
 800336a:	f7fd fa3d 	bl	80007e8 <__addsf3>
 800336e:	f04f 517e 	mov.w	r1, #1065353216	@ 0x3f800000
 8003372:	f7fd fa37 	bl	80007e4 <__aeabi_fsub>
 8003376:	f04f 4180 	mov.w	r1, #1073741824	@ 0x40000000
 800337a:	4605      	mov	r5, r0
 800337c:	4620      	mov	r0, r4
 800337e:	f7fd fa33 	bl	80007e8 <__addsf3>
 8003382:	4601      	mov	r1, r0
 8003384:	4628      	mov	r0, r5
 8003386:	f7fd fbeb 	bl	8000b60 <__aeabi_fdiv>
 800338a:	2600      	movs	r6, #0
 800338c:	4604      	mov	r4, r0
 800338e:	4621      	mov	r1, r4
 8003390:	4620      	mov	r0, r4
 8003392:	f7fd fb31 	bl	80009f8 <__aeabi_fmul>
 8003396:	4601      	mov	r1, r0
 8003398:	4607      	mov	r7, r0
 800339a:	f7fd fb2d 	bl	80009f8 <__aeabi_fmul>
 800339e:	4605      	mov	r5, r0
 80033a0:	494d      	ldr	r1, [pc, #308]	@ (80034d8 <atanf+0x1d8>)
 80033a2:	f7fd fb29 	bl	80009f8 <__aeabi_fmul>
 80033a6:	494d      	ldr	r1, [pc, #308]	@ (80034dc <atanf+0x1dc>)
 80033a8:	f7fd fa1e 	bl	80007e8 <__addsf3>
 80033ac:	4629      	mov	r1, r5
 80033ae:	f7fd fb23 	bl	80009f8 <__aeabi_fmul>
 80033b2:	494b      	ldr	r1, [pc, #300]	@ (80034e0 <atanf+0x1e0>)
 80033b4:	f7fd fa18 	bl	80007e8 <__addsf3>
 80033b8:	4629      	mov	r1, r5
 80033ba:	f7fd fb1d 	bl	80009f8 <__aeabi_fmul>
 80033be:	4949      	ldr	r1, [pc, #292]	@ (80034e4 <atanf+0x1e4>)
 80033c0:	f7fd fa12 	bl	80007e8 <__addsf3>
 80033c4:	4629      	mov	r1, r5
 80033c6:	f7fd fb17 	bl	80009f8 <__aeabi_fmul>
 80033ca:	4947      	ldr	r1, [pc, #284]	@ (80034e8 <atanf+0x1e8>)
 80033cc:	f7fd fa0c 	bl	80007e8 <__addsf3>
 80033d0:	4629      	mov	r1, r5
 80033d2:	f7fd fb11 	bl	80009f8 <__aeabi_fmul>
 80033d6:	4945      	ldr	r1, [pc, #276]	@ (80034ec <atanf+0x1ec>)
 80033d8:	f7fd fa06 	bl	80007e8 <__addsf3>
 80033dc:	4639      	mov	r1, r7
 80033de:	f7fd fb0b 	bl	80009f8 <__aeabi_fmul>
 80033e2:	4943      	ldr	r1, [pc, #268]	@ (80034f0 <atanf+0x1f0>)
 80033e4:	4607      	mov	r7, r0
 80033e6:	4628      	mov	r0, r5
 80033e8:	f7fd fb06 	bl	80009f8 <__aeabi_fmul>
 80033ec:	4941      	ldr	r1, [pc, #260]	@ (80034f4 <atanf+0x1f4>)
 80033ee:	f7fd f9f9 	bl	80007e4 <__aeabi_fsub>
 80033f2:	4629      	mov	r1, r5
 80033f4:	f7fd fb00 	bl	80009f8 <__aeabi_fmul>
 80033f8:	493f      	ldr	r1, [pc, #252]	@ (80034f8 <atanf+0x1f8>)
 80033fa:	f7fd f9f3 	bl	80007e4 <__aeabi_fsub>
 80033fe:	4629      	mov	r1, r5
 8003400:	f7fd fafa 	bl	80009f8 <__aeabi_fmul>
 8003404:	493d      	ldr	r1, [pc, #244]	@ (80034fc <atanf+0x1fc>)
 8003406:	f7fd f9ed 	bl	80007e4 <__aeabi_fsub>
 800340a:	4629      	mov	r1, r5
 800340c:	f7fd faf4 	bl	80009f8 <__aeabi_fmul>
 8003410:	493b      	ldr	r1, [pc, #236]	@ (8003500 <atanf+0x200>)
 8003412:	f7fd f9e7 	bl	80007e4 <__aeabi_fsub>
 8003416:	4629      	mov	r1, r5
 8003418:	f7fd faee 	bl	80009f8 <__aeabi_fmul>
 800341c:	4601      	mov	r1, r0
 800341e:	4638      	mov	r0, r7
 8003420:	f7fd f9e2 	bl	80007e8 <__addsf3>
 8003424:	4621      	mov	r1, r4
 8003426:	f7fd fae7 	bl	80009f8 <__aeabi_fmul>
 800342a:	1c73      	adds	r3, r6, #1
 800342c:	4601      	mov	r1, r0
 800342e:	d133      	bne.n	8003498 <atanf+0x198>
 8003430:	4620      	mov	r0, r4
 8003432:	f7fd f9d7 	bl	80007e4 <__aeabi_fsub>
 8003436:	e772      	b.n	800331e <atanf+0x1e>
 8003438:	f04f 517e 	mov.w	r1, #1065353216	@ 0x3f800000
 800343c:	f7fd f9d2 	bl	80007e4 <__aeabi_fsub>
 8003440:	f04f 517e 	mov.w	r1, #1065353216	@ 0x3f800000
 8003444:	4605      	mov	r5, r0
 8003446:	4620      	mov	r0, r4
 8003448:	f7fd f9ce 	bl	80007e8 <__addsf3>
 800344c:	4601      	mov	r1, r0
 800344e:	4628      	mov	r0, r5
 8003450:	f7fd fb86 	bl	8000b60 <__aeabi_fdiv>
 8003454:	2601      	movs	r6, #1
 8003456:	4604      	mov	r4, r0
 8003458:	e799      	b.n	800338e <atanf+0x8e>
 800345a:	4b2a      	ldr	r3, [pc, #168]	@ (8003504 <atanf+0x204>)
 800345c:	429d      	cmp	r5, r3
 800345e:	d814      	bhi.n	800348a <atanf+0x18a>
 8003460:	f04f 517f 	mov.w	r1, #1069547520	@ 0x3fc00000
 8003464:	f7fd f9be 	bl	80007e4 <__aeabi_fsub>
 8003468:	f04f 517f 	mov.w	r1, #1069547520	@ 0x3fc00000
 800346c:	4605      	mov	r5, r0
 800346e:	4620      	mov	r0, r4
 8003470:	f7fd fac2 	bl	80009f8 <__aeabi_fmul>
 8003474:	f04f 517e 	mov.w	r1, #1065353216	@ 0x3f800000
 8003478:	f7fd f9b6 	bl	80007e8 <__addsf3>
 800347c:	4601      	mov	r1, r0
 800347e:	4628      	mov	r0, r5
 8003480:	f7fd fb6e 	bl	8000b60 <__aeabi_fdiv>
 8003484:	2602      	movs	r6, #2
 8003486:	4604      	mov	r4, r0
 8003488:	e781      	b.n	800338e <atanf+0x8e>
 800348a:	4601      	mov	r1, r0
 800348c:	481e      	ldr	r0, [pc, #120]	@ (8003508 <atanf+0x208>)
 800348e:	f7fd fb67 	bl	8000b60 <__aeabi_fdiv>
 8003492:	2603      	movs	r6, #3
 8003494:	4604      	mov	r4, r0
 8003496:	e77a      	b.n	800338e <atanf+0x8e>
 8003498:	4b1c      	ldr	r3, [pc, #112]	@ (800350c <atanf+0x20c>)
 800349a:	f853 1026 	ldr.w	r1, [r3, r6, lsl #2]
 800349e:	f7fd f9a1 	bl	80007e4 <__aeabi_fsub>
 80034a2:	4621      	mov	r1, r4
 80034a4:	f7fd f99e 	bl	80007e4 <__aeabi_fsub>
 80034a8:	4b19      	ldr	r3, [pc, #100]	@ (8003510 <atanf+0x210>)
 80034aa:	4601      	mov	r1, r0
 80034ac:	f853 0026 	ldr.w	r0, [r3, r6, lsl #2]
 80034b0:	f7fd f998 	bl	80007e4 <__aeabi_fsub>
 80034b4:	f1b8 0f00 	cmp.w	r8, #0
 80034b8:	4604      	mov	r4, r0
 80034ba:	f6bf af36 	bge.w	800332a <atanf+0x2a>
 80034be:	f100 4400 	add.w	r4, r0, #2147483648	@ 0x80000000
 80034c2:	e732      	b.n	800332a <atanf+0x2a>
 80034c4:	4c13      	ldr	r4, [pc, #76]	@ (8003514 <atanf+0x214>)
 80034c6:	e730      	b.n	800332a <atanf+0x2a>
 80034c8:	3fc90fdb 	.word	0x3fc90fdb
 80034cc:	3edfffff 	.word	0x3edfffff
 80034d0:	7149f2ca 	.word	0x7149f2ca
 80034d4:	3f97ffff 	.word	0x3f97ffff
 80034d8:	3c8569d7 	.word	0x3c8569d7
 80034dc:	3d4bda59 	.word	0x3d4bda59
 80034e0:	3d886b35 	.word	0x3d886b35
 80034e4:	3dba2e6e 	.word	0x3dba2e6e
 80034e8:	3e124925 	.word	0x3e124925
 80034ec:	3eaaaaab 	.word	0x3eaaaaab
 80034f0:	bd15a221 	.word	0xbd15a221
 80034f4:	3d6ef16b 	.word	0x3d6ef16b
 80034f8:	3d9d8795 	.word	0x3d9d8795
 80034fc:	3de38e38 	.word	0x3de38e38
 8003500:	3e4ccccd 	.word	0x3e4ccccd
 8003504:	401bffff 	.word	0x401bffff
 8003508:	bf800000 	.word	0xbf800000
 800350c:	080035a4 	.word	0x080035a4
 8003510:	080035b4 	.word	0x080035b4
 8003514:	bfc90fdb 	.word	0xbfc90fdb

08003518 <fabsf>:
 8003518:	f020 4000 	bic.w	r0, r0, #2147483648	@ 0x80000000
 800351c:	4770      	bx	lr
	...

08003520 <_init>:
 8003520:	b5f8      	push	{r3, r4, r5, r6, r7, lr}
 8003522:	bf00      	nop
 8003524:	bcf8      	pop	{r3, r4, r5, r6, r7}
 8003526:	bc08      	pop	{r3}
 8003528:	469e      	mov	lr, r3
 800352a:	4770      	bx	lr

0800352c <_fini>:
 800352c:	b5f8      	push	{r3, r4, r5, r6, r7, lr}
 800352e:	bf00      	nop
 8003530:	bcf8      	pop	{r3, r4, r5, r6, r7}
 8003532:	bc08      	pop	{r3}
 8003534:	469e      	mov	lr, r3
 8003536:	4770      	bx	lr
